ARM GAS  /tmp/cc4HmTtm.s 			page 1


   1              		.cpu cortex-m7
   2              		.eabi_attribute 28, 1
   3              		.eabi_attribute 20, 1
   4              		.eabi_attribute 21, 1
   5              		.eabi_attribute 23, 3
   6              		.eabi_attribute 24, 1
   7              		.eabi_attribute 25, 1
   8              		.eabi_attribute 26, 1
   9              		.eabi_attribute 30, 4
  10              		.eabi_attribute 34, 1
  11              		.eabi_attribute 18, 4
  12              		.file	"Basic_Overdrive.cpp"
  13              		.text
  14              	.Ltext0:
  15              		.cfi_sections	.debug_frame
  16              		.section	.rodata._ZN15Basic_Overdrive10CycleParamEv.str1.1,"aMS",%progbits,1
  17              	.LC0:
  18 0000 4D697800 		.ascii	"Mix\000"
  19              	.LC1:
  20 0004 44726976 		.ascii	"Drive\000"
  20      6500
  21              	.LC2:
  22 000a 3F00     		.ascii	"?\000"
  23              		.section	.text._ZN15Basic_Overdrive10CycleParamEv,"ax",%progbits
  24              		.align	1
  25              		.global	_ZN15Basic_Overdrive10CycleParamEv
  26              		.arch armv7e-m
  27              		.syntax unified
  28              		.thumb
  29              		.thumb_func
  30              		.fpu fpv5-d16
  32              	_ZN15Basic_Overdrive10CycleParamEv:
  33              	.LVL0:
  34              	.LFB3530:
  35              		.file 1 "Basic_Overdrive.cpp"
   1:Basic_Overdrive.cpp **** #include "daisysp.h"
   2:Basic_Overdrive.cpp **** #include "Basic_Overdrive.h"
   3:Basic_Overdrive.cpp **** #include <algorithm>
   4:Basic_Overdrive.cpp **** 
   5:Basic_Overdrive.cpp **** void Basic_Overdrive::Init(float sample_rate)
   6:Basic_Overdrive.cpp **** {
   7:Basic_Overdrive.cpp ****     m_sample_rate = sample_rate;
   8:Basic_Overdrive.cpp ****     SetDrive(.5f);
   9:Basic_Overdrive.cpp **** }
  10:Basic_Overdrive.cpp **** 
  11:Basic_Overdrive.cpp **** float Basic_Overdrive::Process(float in)
  12:Basic_Overdrive.cpp **** {
  13:Basic_Overdrive.cpp ****     float pre = pre_gain_ * in;
  14:Basic_Overdrive.cpp ****     return (daisysp::SoftClip(pre) * post_gain_)*m_mix + in*(1-m_mix);
  15:Basic_Overdrive.cpp **** }
  16:Basic_Overdrive.cpp **** 
  17:Basic_Overdrive.cpp **** void Basic_Overdrive::SetDrive(float drive)
  18:Basic_Overdrive.cpp **** {
  19:Basic_Overdrive.cpp ****     drive  = daisysp::fclamp(drive, 0.f, 1.f);
  20:Basic_Overdrive.cpp ****     drive_ = 2.f * drive;
  21:Basic_Overdrive.cpp **** 
  22:Basic_Overdrive.cpp ****     const float drive_2    = drive_ * drive_;
ARM GAS  /tmp/cc4HmTtm.s 			page 2


  23:Basic_Overdrive.cpp ****     const float pre_gain_a = drive_ * 0.5f;
  24:Basic_Overdrive.cpp ****     const float pre_gain_b = drive_2 * drive_2 * drive_ * 24.0f;
  25:Basic_Overdrive.cpp ****     pre_gain_              = pre_gain_a + (pre_gain_b - pre_gain_a) * drive_2;
  26:Basic_Overdrive.cpp **** 
  27:Basic_Overdrive.cpp ****     const float drive_squashed = drive_ * (2.0f - drive_);
  28:Basic_Overdrive.cpp ****     post_gain_ = 1.0f / daisysp::SoftClip(0.33f + drive_squashed * (pre_gain_ - 0.33f));
  29:Basic_Overdrive.cpp **** }
  30:Basic_Overdrive.cpp **** 
  31:Basic_Overdrive.cpp **** void Basic_Overdrive::CycleParam() 
  32:Basic_Overdrive.cpp **** {
  36              		.loc 1 32 1 view -0
  37              		.cfi_startproc
  38              		@ args = 0, pretend = 0, frame = 0
  39              		@ frame_needed = 0, uses_anonymous_args = 0
  40              		@ link register save eliminated.
  33:Basic_Overdrive.cpp ****     m_current_param = (m_current_param + 1) % m_param_count; if (m_current_param >= m_param_count) 
  41              		.loc 1 33 5 view .LVU1
  42              		.loc 1 33 40 is_stmt 0 view .LVU2
  43 0000 D0E90813 		ldrd	r1, r3, [r0, #32]
  32:Basic_Overdrive.cpp ****     m_current_param = (m_current_param + 1) % m_param_count; if (m_current_param >= m_param_count) 
  44              		.loc 1 32 1 view .LVU3
  45 0004 0246     		mov	r2, r0
  46              		.loc 1 33 40 view .LVU4
  47 0006 0133     		adds	r3, r3, #1
  48              		.loc 1 33 45 view .LVU5
  49 0008 93FBF1F0 		sdiv	r0, r3, r1
  50              	.LVL1:
  51              		.loc 1 33 45 view .LVU6
  52 000c 01FB1033 		mls	r3, r1, r0, r3
  34:Basic_Overdrive.cpp **** 
  35:Basic_Overdrive.cpp ****     switch (m_current_param)
  36:Basic_Overdrive.cpp ****     {
  37:Basic_Overdrive.cpp ****         case 0:
  38:Basic_Overdrive.cpp ****             m_current_param_name = "Mix";
  39:Basic_Overdrive.cpp ****             break;
  40:Basic_Overdrive.cpp ****         case 1:
  41:Basic_Overdrive.cpp ****             m_current_param_name = "Drive";
  53              		.loc 1 41 36 view .LVU7
  54 0010 02F12800 		add	r0, r2, #40
  33:Basic_Overdrive.cpp **** 
  55              		.loc 1 33 62 view .LVU8
  56 0014 9942     		cmp	r1, r3
  33:Basic_Overdrive.cpp **** 
  57              		.loc 1 33 21 view .LVU9
  58 0016 5362     		str	r3, [r2, #36]
  33:Basic_Overdrive.cpp **** 
  59              		.loc 1 33 62 is_stmt 1 view .LVU10
  60 0018 04DC     		bgt	.L2
  33:Basic_Overdrive.cpp **** 
  61              		.loc 1 33 100 discriminator 1 view .LVU11
  33:Basic_Overdrive.cpp **** 
  62              		.loc 1 33 116 is_stmt 0 discriminator 1 view .LVU12
  63 001a 0023     		movs	r3, #0
  64 001c 5362     		str	r3, [r2, #36]
  35:Basic_Overdrive.cpp ****     {
  65              		.loc 1 35 5 is_stmt 1 discriminator 1 view .LVU13
  66              	.L3:
ARM GAS  /tmp/cc4HmTtm.s 			page 3


  37:Basic_Overdrive.cpp ****             m_current_param_name = "Mix";
  67              		.loc 1 37 9 view .LVU14
  38:Basic_Overdrive.cpp ****             break;
  68              		.loc 1 38 13 view .LVU15
  38:Basic_Overdrive.cpp ****             break;
  69              		.loc 1 38 36 is_stmt 0 view .LVU16
  70 001e 0549     		ldr	r1, .L11
  71              	.L10:
  42:Basic_Overdrive.cpp ****             break;
  43:Basic_Overdrive.cpp ****         default:
  44:Basic_Overdrive.cpp ****             m_current_param_name = "?";
  72              		.loc 1 44 36 view .LVU17
  73 0020 FFF7FEBF 		b	_ZNSt7__cxx1112basic_stringIcSt11char_traitsIcESaIcEEaSEPKc
  74              	.LVL2:
  75              	.L2:
  35:Basic_Overdrive.cpp ****     {
  76              		.loc 1 35 5 is_stmt 1 view .LVU18
  77 0024 002B     		cmp	r3, #0
  78 0026 FAD0     		beq	.L3
  79 0028 012B     		cmp	r3, #1
  80 002a 01D0     		beq	.L4
  43:Basic_Overdrive.cpp ****             m_current_param_name = "?";
  81              		.loc 1 43 9 view .LVU19
  82              		.loc 1 44 13 view .LVU20
  83              		.loc 1 44 36 is_stmt 0 view .LVU21
  84 002c 0249     		ldr	r1, .L11+4
  85 002e F7E7     		b	.L10
  86              	.L4:
  40:Basic_Overdrive.cpp ****             m_current_param_name = "Drive";
  87              		.loc 1 40 9 is_stmt 1 view .LVU22
  41:Basic_Overdrive.cpp ****             break;
  88              		.loc 1 41 13 view .LVU23
  41:Basic_Overdrive.cpp ****             break;
  89              		.loc 1 41 36 is_stmt 0 view .LVU24
  90 0030 0249     		ldr	r1, .L11+8
  91 0032 F5E7     		b	.L10
  92              	.L12:
  93              		.align	2
  94              	.L11:
  95 0034 00000000 		.word	.LC0
  96 0038 0A000000 		.word	.LC2
  97 003c 04000000 		.word	.LC1
  98              		.cfi_endproc
  99              	.LFE3530:
 101              		.section	.text._ZN7daisysp8SoftClipEf,"axG",%progbits,_ZN7daisysp8SoftClipEf,comdat
 102              		.align	1
 103              		.weak	_ZN7daisysp8SoftClipEf
 104              		.syntax unified
 105              		.thumb
 106              		.thumb_func
 107              		.fpu fpv5-d16
 109              	_ZN7daisysp8SoftClipEf:
 110              	.LVL3:
 111              	.LFB2816:
 112              		.file 2 "/home/luca/Desktop/DaisyExamples/DaisySP//Source/Utility/dsp.h"
   1:/home/luca/Desktop/DaisyExamples/DaisySP//Source/Utility/dsp.h **** /*
   2:/home/luca/Desktop/DaisyExamples/DaisySP//Source/Utility/dsp.h **** Copyright (c) 2020 Electrosmith, Corp, Emilie Gillet
ARM GAS  /tmp/cc4HmTtm.s 			page 4


   3:/home/luca/Desktop/DaisyExamples/DaisySP//Source/Utility/dsp.h **** 
   4:/home/luca/Desktop/DaisyExamples/DaisySP//Source/Utility/dsp.h **** Use of this source code is governed by an MIT-style
   5:/home/luca/Desktop/DaisyExamples/DaisySP//Source/Utility/dsp.h **** license that can be found in the LICENSE file or at
   6:/home/luca/Desktop/DaisyExamples/DaisySP//Source/Utility/dsp.h **** https://opensource.org/licenses/MIT.
   7:/home/luca/Desktop/DaisyExamples/DaisySP//Source/Utility/dsp.h **** */
   8:/home/luca/Desktop/DaisyExamples/DaisySP//Source/Utility/dsp.h **** 
   9:/home/luca/Desktop/DaisyExamples/DaisySP//Source/Utility/dsp.h **** /** Helpful defines, functions, and other utilities for use in/with daisysp modules.
  10:/home/luca/Desktop/DaisyExamples/DaisySP//Source/Utility/dsp.h **** */
  11:/home/luca/Desktop/DaisyExamples/DaisySP//Source/Utility/dsp.h **** #pragma once
  12:/home/luca/Desktop/DaisyExamples/DaisySP//Source/Utility/dsp.h **** #ifndef DSY_CORE_DSP
  13:/home/luca/Desktop/DaisyExamples/DaisySP//Source/Utility/dsp.h **** #define DSY_CORE_DSP
  14:/home/luca/Desktop/DaisyExamples/DaisySP//Source/Utility/dsp.h **** #include <cassert>
  15:/home/luca/Desktop/DaisyExamples/DaisySP//Source/Utility/dsp.h **** #include <cstdint>
  16:/home/luca/Desktop/DaisyExamples/DaisySP//Source/Utility/dsp.h **** #include <random>
  17:/home/luca/Desktop/DaisyExamples/DaisySP//Source/Utility/dsp.h **** #include <cmath>
  18:/home/luca/Desktop/DaisyExamples/DaisySP//Source/Utility/dsp.h **** 
  19:/home/luca/Desktop/DaisyExamples/DaisySP//Source/Utility/dsp.h **** /** PIs
  20:/home/luca/Desktop/DaisyExamples/DaisySP//Source/Utility/dsp.h **** */
  21:/home/luca/Desktop/DaisyExamples/DaisySP//Source/Utility/dsp.h **** #define PI_F 3.1415927410125732421875f
  22:/home/luca/Desktop/DaisyExamples/DaisySP//Source/Utility/dsp.h **** #define TWOPI_F (2.0f * PI_F)
  23:/home/luca/Desktop/DaisyExamples/DaisySP//Source/Utility/dsp.h **** #define HALFPI_F (PI_F * 0.5f)
  24:/home/luca/Desktop/DaisyExamples/DaisySP//Source/Utility/dsp.h **** #define DSY_MIN(in, mn) (in < mn ? in : mn)
  25:/home/luca/Desktop/DaisyExamples/DaisySP//Source/Utility/dsp.h **** #define DSY_MAX(in, mx) (in > mx ? in : mx)
  26:/home/luca/Desktop/DaisyExamples/DaisySP//Source/Utility/dsp.h **** #define DSY_CLAMP(in, mn, mx) (DSY_MIN(DSY_MAX(in, mn), mx))
  27:/home/luca/Desktop/DaisyExamples/DaisySP//Source/Utility/dsp.h **** #define DSY_COUNTOF(_arr) (sizeof(_arr) / sizeof(_arr[0]))
  28:/home/luca/Desktop/DaisyExamples/DaisySP//Source/Utility/dsp.h **** 
  29:/home/luca/Desktop/DaisyExamples/DaisySP//Source/Utility/dsp.h **** namespace daisysp
  30:/home/luca/Desktop/DaisyExamples/DaisySP//Source/Utility/dsp.h **** {
  31:/home/luca/Desktop/DaisyExamples/DaisySP//Source/Utility/dsp.h **** //Avoids division for random floats. e.g. rand() * kRandFrac
  32:/home/luca/Desktop/DaisyExamples/DaisySP//Source/Utility/dsp.h **** static constexpr float kRandFrac = 1.f / (float)RAND_MAX;
  33:/home/luca/Desktop/DaisyExamples/DaisySP//Source/Utility/dsp.h **** 
  34:/home/luca/Desktop/DaisyExamples/DaisySP//Source/Utility/dsp.h **** //Convert from semitones to other units. e.g. 2 ^ (kOneTwelfth * x)
  35:/home/luca/Desktop/DaisyExamples/DaisySP//Source/Utility/dsp.h **** static constexpr float kOneTwelfth = 1.f / 12.f;
  36:/home/luca/Desktop/DaisyExamples/DaisySP//Source/Utility/dsp.h **** 
  37:/home/luca/Desktop/DaisyExamples/DaisySP//Source/Utility/dsp.h **** /** efficient floating point min/max
  38:/home/luca/Desktop/DaisyExamples/DaisySP//Source/Utility/dsp.h **** c/o stephen mccaul
  39:/home/luca/Desktop/DaisyExamples/DaisySP//Source/Utility/dsp.h **** */
  40:/home/luca/Desktop/DaisyExamples/DaisySP//Source/Utility/dsp.h **** inline float fmax(float a, float b)
  41:/home/luca/Desktop/DaisyExamples/DaisySP//Source/Utility/dsp.h **** {
  42:/home/luca/Desktop/DaisyExamples/DaisySP//Source/Utility/dsp.h ****     float r;
  43:/home/luca/Desktop/DaisyExamples/DaisySP//Source/Utility/dsp.h **** #ifdef __arm__
  44:/home/luca/Desktop/DaisyExamples/DaisySP//Source/Utility/dsp.h ****     asm("vmaxnm.f32 %[d], %[n], %[m]" : [d] "=t"(r) : [n] "t"(a), [m] "t"(b) :);
  45:/home/luca/Desktop/DaisyExamples/DaisySP//Source/Utility/dsp.h **** #else
  46:/home/luca/Desktop/DaisyExamples/DaisySP//Source/Utility/dsp.h ****     r = (a > b) ? a : b;
  47:/home/luca/Desktop/DaisyExamples/DaisySP//Source/Utility/dsp.h **** #endif // __arm__
  48:/home/luca/Desktop/DaisyExamples/DaisySP//Source/Utility/dsp.h ****     return r;
  49:/home/luca/Desktop/DaisyExamples/DaisySP//Source/Utility/dsp.h **** }
  50:/home/luca/Desktop/DaisyExamples/DaisySP//Source/Utility/dsp.h **** 
  51:/home/luca/Desktop/DaisyExamples/DaisySP//Source/Utility/dsp.h **** inline float fmin(float a, float b)
  52:/home/luca/Desktop/DaisyExamples/DaisySP//Source/Utility/dsp.h **** {
  53:/home/luca/Desktop/DaisyExamples/DaisySP//Source/Utility/dsp.h ****     float r;
  54:/home/luca/Desktop/DaisyExamples/DaisySP//Source/Utility/dsp.h **** #ifdef __arm__
  55:/home/luca/Desktop/DaisyExamples/DaisySP//Source/Utility/dsp.h ****     asm("vminnm.f32 %[d], %[n], %[m]" : [d] "=t"(r) : [n] "t"(a), [m] "t"(b) :);
  56:/home/luca/Desktop/DaisyExamples/DaisySP//Source/Utility/dsp.h **** #else
  57:/home/luca/Desktop/DaisyExamples/DaisySP//Source/Utility/dsp.h ****     r = (a < b) ? a : b;
  58:/home/luca/Desktop/DaisyExamples/DaisySP//Source/Utility/dsp.h **** #endif // __arm__
  59:/home/luca/Desktop/DaisyExamples/DaisySP//Source/Utility/dsp.h ****     return r;
ARM GAS  /tmp/cc4HmTtm.s 			page 5


  60:/home/luca/Desktop/DaisyExamples/DaisySP//Source/Utility/dsp.h **** }
  61:/home/luca/Desktop/DaisyExamples/DaisySP//Source/Utility/dsp.h **** 
  62:/home/luca/Desktop/DaisyExamples/DaisySP//Source/Utility/dsp.h **** /** quick fp clamp
  63:/home/luca/Desktop/DaisyExamples/DaisySP//Source/Utility/dsp.h **** */
  64:/home/luca/Desktop/DaisyExamples/DaisySP//Source/Utility/dsp.h **** inline float fclamp(float in, float min, float max)
  65:/home/luca/Desktop/DaisyExamples/DaisySP//Source/Utility/dsp.h **** {
  66:/home/luca/Desktop/DaisyExamples/DaisySP//Source/Utility/dsp.h ****     return fmin(fmax(in, min), max);
  67:/home/luca/Desktop/DaisyExamples/DaisySP//Source/Utility/dsp.h **** }
  68:/home/luca/Desktop/DaisyExamples/DaisySP//Source/Utility/dsp.h **** 
  69:/home/luca/Desktop/DaisyExamples/DaisySP//Source/Utility/dsp.h **** /** From Musicdsp.org "Fast power and root estimates for 32bit floats)
  70:/home/luca/Desktop/DaisyExamples/DaisySP//Source/Utility/dsp.h **** Original code by Stefan Stenzel
  71:/home/luca/Desktop/DaisyExamples/DaisySP//Source/Utility/dsp.h **** These are approximations
  72:/home/luca/Desktop/DaisyExamples/DaisySP//Source/Utility/dsp.h **** */
  73:/home/luca/Desktop/DaisyExamples/DaisySP//Source/Utility/dsp.h **** inline float fastpower(float f, int n)
  74:/home/luca/Desktop/DaisyExamples/DaisySP//Source/Utility/dsp.h **** {
  75:/home/luca/Desktop/DaisyExamples/DaisySP//Source/Utility/dsp.h ****     long *lp, l;
  76:/home/luca/Desktop/DaisyExamples/DaisySP//Source/Utility/dsp.h ****     lp = (long *)(&f);
  77:/home/luca/Desktop/DaisyExamples/DaisySP//Source/Utility/dsp.h ****     l  = *lp;
  78:/home/luca/Desktop/DaisyExamples/DaisySP//Source/Utility/dsp.h ****     l -= 0x3F800000;
  79:/home/luca/Desktop/DaisyExamples/DaisySP//Source/Utility/dsp.h ****     l <<= (n - 1);
  80:/home/luca/Desktop/DaisyExamples/DaisySP//Source/Utility/dsp.h ****     l += 0x3F800000;
  81:/home/luca/Desktop/DaisyExamples/DaisySP//Source/Utility/dsp.h ****     *lp = l;
  82:/home/luca/Desktop/DaisyExamples/DaisySP//Source/Utility/dsp.h ****     return f;
  83:/home/luca/Desktop/DaisyExamples/DaisySP//Source/Utility/dsp.h **** }
  84:/home/luca/Desktop/DaisyExamples/DaisySP//Source/Utility/dsp.h **** 
  85:/home/luca/Desktop/DaisyExamples/DaisySP//Source/Utility/dsp.h **** inline float fastroot(float f, int n)
  86:/home/luca/Desktop/DaisyExamples/DaisySP//Source/Utility/dsp.h **** {
  87:/home/luca/Desktop/DaisyExamples/DaisySP//Source/Utility/dsp.h ****     long *lp, l;
  88:/home/luca/Desktop/DaisyExamples/DaisySP//Source/Utility/dsp.h ****     lp = (long *)(&f);
  89:/home/luca/Desktop/DaisyExamples/DaisySP//Source/Utility/dsp.h ****     l  = *lp;
  90:/home/luca/Desktop/DaisyExamples/DaisySP//Source/Utility/dsp.h ****     l -= 0x3F800000;
  91:/home/luca/Desktop/DaisyExamples/DaisySP//Source/Utility/dsp.h ****     l >>= (n - 1);
  92:/home/luca/Desktop/DaisyExamples/DaisySP//Source/Utility/dsp.h ****     l += 0x3F800000;
  93:/home/luca/Desktop/DaisyExamples/DaisySP//Source/Utility/dsp.h ****     *lp = l;
  94:/home/luca/Desktop/DaisyExamples/DaisySP//Source/Utility/dsp.h ****     return f;
  95:/home/luca/Desktop/DaisyExamples/DaisySP//Source/Utility/dsp.h **** }
  96:/home/luca/Desktop/DaisyExamples/DaisySP//Source/Utility/dsp.h **** 
  97:/home/luca/Desktop/DaisyExamples/DaisySP//Source/Utility/dsp.h **** /** Significantly more efficient than fmodf(x, 1.0f) for calculating
  98:/home/luca/Desktop/DaisyExamples/DaisySP//Source/Utility/dsp.h ****  *  the decimal part of a floating point value.
  99:/home/luca/Desktop/DaisyExamples/DaisySP//Source/Utility/dsp.h ****  */
 100:/home/luca/Desktop/DaisyExamples/DaisySP//Source/Utility/dsp.h **** inline float fastmod1f(float x)
 101:/home/luca/Desktop/DaisyExamples/DaisySP//Source/Utility/dsp.h **** {
 102:/home/luca/Desktop/DaisyExamples/DaisySP//Source/Utility/dsp.h ****     return x - static_cast<int>(x);
 103:/home/luca/Desktop/DaisyExamples/DaisySP//Source/Utility/dsp.h **** }
 104:/home/luca/Desktop/DaisyExamples/DaisySP//Source/Utility/dsp.h **** 
 105:/home/luca/Desktop/DaisyExamples/DaisySP//Source/Utility/dsp.h **** /** From http://openaudio.blogspot.com/2017/02/faster-log10-and-pow.html
 106:/home/luca/Desktop/DaisyExamples/DaisySP//Source/Utility/dsp.h **** No approximation, pow10f(x) gives a 90% speed increase over powf(10.f, x)
 107:/home/luca/Desktop/DaisyExamples/DaisySP//Source/Utility/dsp.h **** */
 108:/home/luca/Desktop/DaisyExamples/DaisySP//Source/Utility/dsp.h **** inline float pow10f(float f)
 109:/home/luca/Desktop/DaisyExamples/DaisySP//Source/Utility/dsp.h **** {
 110:/home/luca/Desktop/DaisyExamples/DaisySP//Source/Utility/dsp.h ****     return expf(2.302585092994046f * f);
 111:/home/luca/Desktop/DaisyExamples/DaisySP//Source/Utility/dsp.h **** }
 112:/home/luca/Desktop/DaisyExamples/DaisySP//Source/Utility/dsp.h **** 
 113:/home/luca/Desktop/DaisyExamples/DaisySP//Source/Utility/dsp.h **** /* Original code for fastlog2f by Dr. Paul Beckmann from the ARM community forum, adapted from the 
 114:/home/luca/Desktop/DaisyExamples/DaisySP//Source/Utility/dsp.h **** About 25% performance increase over std::log10f
 115:/home/luca/Desktop/DaisyExamples/DaisySP//Source/Utility/dsp.h **** */
 116:/home/luca/Desktop/DaisyExamples/DaisySP//Source/Utility/dsp.h **** inline float fastlog2f(float f)
ARM GAS  /tmp/cc4HmTtm.s 			page 6


 117:/home/luca/Desktop/DaisyExamples/DaisySP//Source/Utility/dsp.h **** {
 118:/home/luca/Desktop/DaisyExamples/DaisySP//Source/Utility/dsp.h ****     float frac;
 119:/home/luca/Desktop/DaisyExamples/DaisySP//Source/Utility/dsp.h ****     int   exp;
 120:/home/luca/Desktop/DaisyExamples/DaisySP//Source/Utility/dsp.h ****     frac = frexpf(fabsf(f), &exp);
 121:/home/luca/Desktop/DaisyExamples/DaisySP//Source/Utility/dsp.h ****     f    = 1.23149591368684f;
 122:/home/luca/Desktop/DaisyExamples/DaisySP//Source/Utility/dsp.h ****     f *= frac;
 123:/home/luca/Desktop/DaisyExamples/DaisySP//Source/Utility/dsp.h ****     f += -4.11852516267426f;
 124:/home/luca/Desktop/DaisyExamples/DaisySP//Source/Utility/dsp.h ****     f *= frac;
 125:/home/luca/Desktop/DaisyExamples/DaisySP//Source/Utility/dsp.h ****     f += 6.02197014179219f;
 126:/home/luca/Desktop/DaisyExamples/DaisySP//Source/Utility/dsp.h ****     f *= frac;
 127:/home/luca/Desktop/DaisyExamples/DaisySP//Source/Utility/dsp.h ****     f += -3.13396450166353f;
 128:/home/luca/Desktop/DaisyExamples/DaisySP//Source/Utility/dsp.h ****     f += exp;
 129:/home/luca/Desktop/DaisyExamples/DaisySP//Source/Utility/dsp.h ****     return (f);
 130:/home/luca/Desktop/DaisyExamples/DaisySP//Source/Utility/dsp.h **** }
 131:/home/luca/Desktop/DaisyExamples/DaisySP//Source/Utility/dsp.h **** 
 132:/home/luca/Desktop/DaisyExamples/DaisySP//Source/Utility/dsp.h **** inline float fastlog10f(float f)
 133:/home/luca/Desktop/DaisyExamples/DaisySP//Source/Utility/dsp.h **** {
 134:/home/luca/Desktop/DaisyExamples/DaisySP//Source/Utility/dsp.h ****     return fastlog2f(f) * 0.3010299956639812f;
 135:/home/luca/Desktop/DaisyExamples/DaisySP//Source/Utility/dsp.h **** }
 136:/home/luca/Desktop/DaisyExamples/DaisySP//Source/Utility/dsp.h **** 
 137:/home/luca/Desktop/DaisyExamples/DaisySP//Source/Utility/dsp.h **** /** Midi to frequency helper
 138:/home/luca/Desktop/DaisyExamples/DaisySP//Source/Utility/dsp.h **** */
 139:/home/luca/Desktop/DaisyExamples/DaisySP//Source/Utility/dsp.h **** inline float mtof(float m)
 140:/home/luca/Desktop/DaisyExamples/DaisySP//Source/Utility/dsp.h **** {
 141:/home/luca/Desktop/DaisyExamples/DaisySP//Source/Utility/dsp.h ****     return powf(2, (m - 69.0f) / 12.0f) * 440.0f;
 142:/home/luca/Desktop/DaisyExamples/DaisySP//Source/Utility/dsp.h **** }
 143:/home/luca/Desktop/DaisyExamples/DaisySP//Source/Utility/dsp.h **** 
 144:/home/luca/Desktop/DaisyExamples/DaisySP//Source/Utility/dsp.h **** 
 145:/home/luca/Desktop/DaisyExamples/DaisySP//Source/Utility/dsp.h **** /** one pole lpf
 146:/home/luca/Desktop/DaisyExamples/DaisySP//Source/Utility/dsp.h **** out is passed by reference, and must be retained between
 147:/home/luca/Desktop/DaisyExamples/DaisySP//Source/Utility/dsp.h **** calls to properly filter the signal
 148:/home/luca/Desktop/DaisyExamples/DaisySP//Source/Utility/dsp.h **** coeff can be calculated:
 149:/home/luca/Desktop/DaisyExamples/DaisySP//Source/Utility/dsp.h **** coeff = 1.0 / (time * sample_rate) ; where time is in seconds
 150:/home/luca/Desktop/DaisyExamples/DaisySP//Source/Utility/dsp.h **** */
 151:/home/luca/Desktop/DaisyExamples/DaisySP//Source/Utility/dsp.h **** inline void fonepole(float &out, float in, float coeff)
 152:/home/luca/Desktop/DaisyExamples/DaisySP//Source/Utility/dsp.h **** {
 153:/home/luca/Desktop/DaisyExamples/DaisySP//Source/Utility/dsp.h ****     out += coeff * (in - out);
 154:/home/luca/Desktop/DaisyExamples/DaisySP//Source/Utility/dsp.h **** }
 155:/home/luca/Desktop/DaisyExamples/DaisySP//Source/Utility/dsp.h **** 
 156:/home/luca/Desktop/DaisyExamples/DaisySP//Source/Utility/dsp.h **** /** Curves to use with the fmap function */
 157:/home/luca/Desktop/DaisyExamples/DaisySP//Source/Utility/dsp.h **** enum class Mapping
 158:/home/luca/Desktop/DaisyExamples/DaisySP//Source/Utility/dsp.h **** {
 159:/home/luca/Desktop/DaisyExamples/DaisySP//Source/Utility/dsp.h ****     LINEAR,
 160:/home/luca/Desktop/DaisyExamples/DaisySP//Source/Utility/dsp.h ****     EXP,
 161:/home/luca/Desktop/DaisyExamples/DaisySP//Source/Utility/dsp.h ****     LOG,
 162:/home/luca/Desktop/DaisyExamples/DaisySP//Source/Utility/dsp.h **** };
 163:/home/luca/Desktop/DaisyExamples/DaisySP//Source/Utility/dsp.h **** 
 164:/home/luca/Desktop/DaisyExamples/DaisySP//Source/Utility/dsp.h **** /** Maps a float between a specified range, using a specified curve.
 165:/home/luca/Desktop/DaisyExamples/DaisySP//Source/Utility/dsp.h ****  *
 166:/home/luca/Desktop/DaisyExamples/DaisySP//Source/Utility/dsp.h ****  *  \param in a value between 0 to 1 that will be mapped to the new range.
 167:/home/luca/Desktop/DaisyExamples/DaisySP//Source/Utility/dsp.h ****  *  \param min the new minimum value
 168:/home/luca/Desktop/DaisyExamples/DaisySP//Source/Utility/dsp.h ****  *  \param max the new maxmimum value
 169:/home/luca/Desktop/DaisyExamples/DaisySP//Source/Utility/dsp.h ****  *  \param curve a Mapping Value to adjust the response curve of the transformation
 170:/home/luca/Desktop/DaisyExamples/DaisySP//Source/Utility/dsp.h ****  *               defaults to Linear. @see Mapping
 171:/home/luca/Desktop/DaisyExamples/DaisySP//Source/Utility/dsp.h ****  *
 172:/home/luca/Desktop/DaisyExamples/DaisySP//Source/Utility/dsp.h ****  *  When using the log curve min and max, must be greater than zero.
 173:/home/luca/Desktop/DaisyExamples/DaisySP//Source/Utility/dsp.h ****  *
ARM GAS  /tmp/cc4HmTtm.s 			page 7


 174:/home/luca/Desktop/DaisyExamples/DaisySP//Source/Utility/dsp.h ****  *  \retval returns the transformed float within the new range.
 175:/home/luca/Desktop/DaisyExamples/DaisySP//Source/Utility/dsp.h **** */
 176:/home/luca/Desktop/DaisyExamples/DaisySP//Source/Utility/dsp.h **** inline float
 177:/home/luca/Desktop/DaisyExamples/DaisySP//Source/Utility/dsp.h **** fmap(float in, float min, float max, Mapping curve = Mapping::LINEAR)
 178:/home/luca/Desktop/DaisyExamples/DaisySP//Source/Utility/dsp.h **** {
 179:/home/luca/Desktop/DaisyExamples/DaisySP//Source/Utility/dsp.h ****     switch(curve)
 180:/home/luca/Desktop/DaisyExamples/DaisySP//Source/Utility/dsp.h ****     {
 181:/home/luca/Desktop/DaisyExamples/DaisySP//Source/Utility/dsp.h ****         case Mapping::EXP:
 182:/home/luca/Desktop/DaisyExamples/DaisySP//Source/Utility/dsp.h ****             return fclamp(min + (in * in) * (max - min), min, max);
 183:/home/luca/Desktop/DaisyExamples/DaisySP//Source/Utility/dsp.h ****         case Mapping::LOG:
 184:/home/luca/Desktop/DaisyExamples/DaisySP//Source/Utility/dsp.h ****         {
 185:/home/luca/Desktop/DaisyExamples/DaisySP//Source/Utility/dsp.h ****             const float a = 1.f / log10f(max / min);
 186:/home/luca/Desktop/DaisyExamples/DaisySP//Source/Utility/dsp.h ****             return fclamp(min * powf(10, in / a), min, max);
 187:/home/luca/Desktop/DaisyExamples/DaisySP//Source/Utility/dsp.h ****         }
 188:/home/luca/Desktop/DaisyExamples/DaisySP//Source/Utility/dsp.h ****         case Mapping::LINEAR:
 189:/home/luca/Desktop/DaisyExamples/DaisySP//Source/Utility/dsp.h ****         default: return fclamp(min + in * (max - min), min, max);
 190:/home/luca/Desktop/DaisyExamples/DaisySP//Source/Utility/dsp.h ****     }
 191:/home/luca/Desktop/DaisyExamples/DaisySP//Source/Utility/dsp.h **** }
 192:/home/luca/Desktop/DaisyExamples/DaisySP//Source/Utility/dsp.h **** 
 193:/home/luca/Desktop/DaisyExamples/DaisySP//Source/Utility/dsp.h **** /** Simple 3-point median filter
 194:/home/luca/Desktop/DaisyExamples/DaisySP//Source/Utility/dsp.h **** c/o stephen mccaul
 195:/home/luca/Desktop/DaisyExamples/DaisySP//Source/Utility/dsp.h **** */
 196:/home/luca/Desktop/DaisyExamples/DaisySP//Source/Utility/dsp.h **** template <typename T>
 197:/home/luca/Desktop/DaisyExamples/DaisySP//Source/Utility/dsp.h **** T median(T a, T b, T c)
 198:/home/luca/Desktop/DaisyExamples/DaisySP//Source/Utility/dsp.h **** {
 199:/home/luca/Desktop/DaisyExamples/DaisySP//Source/Utility/dsp.h ****     return (b < a) ? (b < c) ? (c < a) ? c : a : b
 200:/home/luca/Desktop/DaisyExamples/DaisySP//Source/Utility/dsp.h ****                    : (a < c) ? (c < b) ? c : b : a;
 201:/home/luca/Desktop/DaisyExamples/DaisySP//Source/Utility/dsp.h **** }
 202:/home/luca/Desktop/DaisyExamples/DaisySP//Source/Utility/dsp.h **** 
 203:/home/luca/Desktop/DaisyExamples/DaisySP//Source/Utility/dsp.h **** /** Ported from pichenettes/eurorack/plaits/dsp/oscillator/oscillator.h
 204:/home/luca/Desktop/DaisyExamples/DaisySP//Source/Utility/dsp.h **** */
 205:/home/luca/Desktop/DaisyExamples/DaisySP//Source/Utility/dsp.h **** inline float ThisBlepSample(float t)
 206:/home/luca/Desktop/DaisyExamples/DaisySP//Source/Utility/dsp.h **** {
 207:/home/luca/Desktop/DaisyExamples/DaisySP//Source/Utility/dsp.h ****     return 0.5f * t * t;
 208:/home/luca/Desktop/DaisyExamples/DaisySP//Source/Utility/dsp.h **** }
 209:/home/luca/Desktop/DaisyExamples/DaisySP//Source/Utility/dsp.h **** 
 210:/home/luca/Desktop/DaisyExamples/DaisySP//Source/Utility/dsp.h **** /** Ported from pichenettes/eurorack/plaits/dsp/oscillator/oscillator.h
 211:/home/luca/Desktop/DaisyExamples/DaisySP//Source/Utility/dsp.h **** */
 212:/home/luca/Desktop/DaisyExamples/DaisySP//Source/Utility/dsp.h **** inline float NextBlepSample(float t)
 213:/home/luca/Desktop/DaisyExamples/DaisySP//Source/Utility/dsp.h **** {
 214:/home/luca/Desktop/DaisyExamples/DaisySP//Source/Utility/dsp.h ****     t = 1.0f - t;
 215:/home/luca/Desktop/DaisyExamples/DaisySP//Source/Utility/dsp.h ****     return -0.5f * t * t;
 216:/home/luca/Desktop/DaisyExamples/DaisySP//Source/Utility/dsp.h **** }
 217:/home/luca/Desktop/DaisyExamples/DaisySP//Source/Utility/dsp.h **** 
 218:/home/luca/Desktop/DaisyExamples/DaisySP//Source/Utility/dsp.h **** /** Ported from pichenettes/eurorack/plaits/dsp/oscillator/oscillator.h
 219:/home/luca/Desktop/DaisyExamples/DaisySP//Source/Utility/dsp.h **** */
 220:/home/luca/Desktop/DaisyExamples/DaisySP//Source/Utility/dsp.h **** inline float NextIntegratedBlepSample(float t)
 221:/home/luca/Desktop/DaisyExamples/DaisySP//Source/Utility/dsp.h **** {
 222:/home/luca/Desktop/DaisyExamples/DaisySP//Source/Utility/dsp.h ****     const float t1 = 0.5f * t;
 223:/home/luca/Desktop/DaisyExamples/DaisySP//Source/Utility/dsp.h ****     const float t2 = t1 * t1;
 224:/home/luca/Desktop/DaisyExamples/DaisySP//Source/Utility/dsp.h ****     const float t4 = t2 * t2;
 225:/home/luca/Desktop/DaisyExamples/DaisySP//Source/Utility/dsp.h ****     return 0.1875f - t1 + 1.5f * t2 - t4;
 226:/home/luca/Desktop/DaisyExamples/DaisySP//Source/Utility/dsp.h **** }
 227:/home/luca/Desktop/DaisyExamples/DaisySP//Source/Utility/dsp.h **** 
 228:/home/luca/Desktop/DaisyExamples/DaisySP//Source/Utility/dsp.h **** /** Ported from pichenettes/eurorack/plaits/dsp/oscillator/oscillator.h
 229:/home/luca/Desktop/DaisyExamples/DaisySP//Source/Utility/dsp.h **** */
 230:/home/luca/Desktop/DaisyExamples/DaisySP//Source/Utility/dsp.h **** inline float ThisIntegratedBlepSample(float t)
ARM GAS  /tmp/cc4HmTtm.s 			page 8


 231:/home/luca/Desktop/DaisyExamples/DaisySP//Source/Utility/dsp.h **** {
 232:/home/luca/Desktop/DaisyExamples/DaisySP//Source/Utility/dsp.h ****     return NextIntegratedBlepSample(1.0f - t);
 233:/home/luca/Desktop/DaisyExamples/DaisySP//Source/Utility/dsp.h **** }
 234:/home/luca/Desktop/DaisyExamples/DaisySP//Source/Utility/dsp.h **** 
 235:/home/luca/Desktop/DaisyExamples/DaisySP//Source/Utility/dsp.h **** /** Soft Limiting function ported extracted from pichenettes/stmlib */
 236:/home/luca/Desktop/DaisyExamples/DaisySP//Source/Utility/dsp.h **** inline float SoftLimit(float x)
 237:/home/luca/Desktop/DaisyExamples/DaisySP//Source/Utility/dsp.h **** {
 238:/home/luca/Desktop/DaisyExamples/DaisySP//Source/Utility/dsp.h ****     return x * (27.f + x * x) / (27.f + 9.f * x * x);
 239:/home/luca/Desktop/DaisyExamples/DaisySP//Source/Utility/dsp.h **** }
 240:/home/luca/Desktop/DaisyExamples/DaisySP//Source/Utility/dsp.h **** 
 241:/home/luca/Desktop/DaisyExamples/DaisySP//Source/Utility/dsp.h **** /** Soft Clipping function extracted from pichenettes/stmlib */
 242:/home/luca/Desktop/DaisyExamples/DaisySP//Source/Utility/dsp.h **** inline float SoftClip(float x)
 243:/home/luca/Desktop/DaisyExamples/DaisySP//Source/Utility/dsp.h **** {
 113              		.loc 2 243 1 is_stmt 1 view -0
 114              		.cfi_startproc
 115              		@ args = 0, pretend = 0, frame = 0
 116              		@ frame_needed = 0, uses_anonymous_args = 0
 117              		@ link register save eliminated.
 244:/home/luca/Desktop/DaisyExamples/DaisySP//Source/Utility/dsp.h ****     if(x < -3.0f)
 118              		.loc 2 244 5 view .LVU26
 119 0000 F8EE087A 		vmov.f32	s15, #-3.0e+0
 120 0004 B4EEE70A 		vcmpe.f32	s0, s15
 121 0008 F1EE10FA 		vmrs	APSR_nzcv, FPSCR
 122 000c 17D4     		bmi	.L15
 123              	.LVL4:
 124              	.LBB20:
 125              	.LBI20:
 242:/home/luca/Desktop/DaisyExamples/DaisySP//Source/Utility/dsp.h **** {
 126              		.loc 2 242 14 view .LVU27
 127              	.LBB21:
 245:/home/luca/Desktop/DaisyExamples/DaisySP//Source/Utility/dsp.h ****         return -1.0f;
 246:/home/luca/Desktop/DaisyExamples/DaisySP//Source/Utility/dsp.h ****     else if(x > 3.0f)
 128              		.loc 2 246 10 view .LVU28
 129 000e F0EE087A 		vmov.f32	s15, #3.0e+0
 130 0012 B4EEE70A 		vcmpe.f32	s0, s15
 131 0016 F1EE10FA 		vmrs	APSR_nzcv, FPSCR
 132 001a 13DC     		bgt	.L16
 247:/home/luca/Desktop/DaisyExamples/DaisySP//Source/Utility/dsp.h ****         return 1.0f;
 248:/home/luca/Desktop/DaisyExamples/DaisySP//Source/Utility/dsp.h ****     else
 249:/home/luca/Desktop/DaisyExamples/DaisySP//Source/Utility/dsp.h ****         return SoftLimit(x);
 133              		.loc 2 249 9 view .LVU29
 134              	.LVL5:
 135              	.LBB22:
 136              	.LBI22:
 236:/home/luca/Desktop/DaisyExamples/DaisySP//Source/Utility/dsp.h **** {
 137              		.loc 2 236 14 view .LVU30
 138              	.LBB23:
 238:/home/luca/Desktop/DaisyExamples/DaisySP//Source/Utility/dsp.h **** }
 139              		.loc 2 238 5 view .LVU31
 238:/home/luca/Desktop/DaisyExamples/DaisySP//Source/Utility/dsp.h **** }
 140              		.loc 2 238 22 is_stmt 0 view .LVU32
 141 001c F3EE0B7A 		vmov.f32	s15, #2.7e+1
 238:/home/luca/Desktop/DaisyExamples/DaisySP//Source/Utility/dsp.h **** }
 142              		.loc 2 238 45 view .LVU33
 143 0020 F2EE026A 		vmov.f32	s13, #9.0e+0
 238:/home/luca/Desktop/DaisyExamples/DaisySP//Source/Utility/dsp.h **** }
 144              		.loc 2 238 22 view .LVU34
ARM GAS  /tmp/cc4HmTtm.s 			page 9


 145 0024 B0EE677A 		vmov.f32	s14, s15
 238:/home/luca/Desktop/DaisyExamples/DaisySP//Source/Utility/dsp.h **** }
 146              		.loc 2 238 45 view .LVU35
 147 0028 60EE266A 		vmul.f32	s13, s0, s13
 238:/home/luca/Desktop/DaisyExamples/DaisySP//Source/Utility/dsp.h **** }
 148              		.loc 2 238 22 view .LVU36
 149 002c A0EE007A 		vfma.f32	s14, s0, s0
 238:/home/luca/Desktop/DaisyExamples/DaisySP//Source/Utility/dsp.h **** }
 150              		.loc 2 238 39 view .LVU37
 151 0030 E0EE267A 		vfma.f32	s15, s0, s13
 238:/home/luca/Desktop/DaisyExamples/DaisySP//Source/Utility/dsp.h **** }
 152              		.loc 2 238 14 view .LVU38
 153 0034 20EE077A 		vmul.f32	s14, s0, s14
 238:/home/luca/Desktop/DaisyExamples/DaisySP//Source/Utility/dsp.h **** }
 154              		.loc 2 238 52 view .LVU39
 155 0038 87EE270A 		vdiv.f32	s0, s14, s15
 156              	.LVL6:
 238:/home/luca/Desktop/DaisyExamples/DaisySP//Source/Utility/dsp.h **** }
 157              		.loc 2 238 52 view .LVU40
 158              	.LBE23:
 159              	.LBE22:
 160              		.loc 2 249 27 view .LVU41
 161 003c 7047     		bx	lr
 162              	.LVL7:
 163              	.L15:
 164              		.loc 2 249 27 view .LVU42
 165              	.LBE21:
 166              	.LBE20:
 245:/home/luca/Desktop/DaisyExamples/DaisySP//Source/Utility/dsp.h ****     else if(x > 3.0f)
 167              		.loc 2 245 17 view .LVU43
 168 003e BFEE000A 		vmov.f32	s0, #-1.0e+0
 169              	.LVL8:
 245:/home/luca/Desktop/DaisyExamples/DaisySP//Source/Utility/dsp.h ****     else if(x > 3.0f)
 170              		.loc 2 245 17 view .LVU44
 171 0042 7047     		bx	lr
 172              	.LVL9:
 173              	.L16:
 174              	.LBB25:
 175              	.LBB24:
 247:/home/luca/Desktop/DaisyExamples/DaisySP//Source/Utility/dsp.h ****     else
 176              		.loc 2 247 16 view .LVU45
 177 0044 B7EE000A 		vmov.f32	s0, #1.0e+0
 178              	.LVL10:
 247:/home/luca/Desktop/DaisyExamples/DaisySP//Source/Utility/dsp.h ****     else
 179              		.loc 2 247 16 view .LVU46
 180              	.LBE24:
 181              	.LBE25:
 250:/home/luca/Desktop/DaisyExamples/DaisySP//Source/Utility/dsp.h **** }
 182              		.loc 2 250 1 view .LVU47
 183 0048 7047     		bx	lr
 184              		.cfi_endproc
 185              	.LFE2816:
 187              		.section	.text._ZN15Basic_Overdrive7ProcessEf,"ax",%progbits
 188              		.align	1
 189              		.global	_ZN15Basic_Overdrive7ProcessEf
 190              		.syntax unified
 191              		.thumb
ARM GAS  /tmp/cc4HmTtm.s 			page 10


 192              		.thumb_func
 193              		.fpu fpv5-d16
 195              	_ZN15Basic_Overdrive7ProcessEf:
 196              	.LVL11:
 197              	.LFB3528:
  12:Basic_Overdrive.cpp ****     float pre = pre_gain_ * in;
 198              		.loc 1 12 1 is_stmt 1 view -0
 199              		.cfi_startproc
 200              		@ args = 0, pretend = 0, frame = 0
 201              		@ frame_needed = 0, uses_anonymous_args = 0
  13:Basic_Overdrive.cpp ****     return (daisysp::SoftClip(pre) * post_gain_)*m_mix + in*(1-m_mix);
 202              		.loc 1 13 5 view .LVU49
  12:Basic_Overdrive.cpp ****     float pre = pre_gain_ * in;
 203              		.loc 1 12 1 is_stmt 0 view .LVU50
 204 0000 10B5     		push	{r4, lr}
 205              		.cfi_def_cfa_offset 8
 206              		.cfi_offset 4, -8
 207              		.cfi_offset 14, -4
 208 0002 2DED028B 		vpush.64	{d8}
 209              		.cfi_def_cfa_offset 16
 210              		.cfi_offset 80, -16
 211              		.cfi_offset 81, -12
  12:Basic_Overdrive.cpp ****     float pre = pre_gain_ * in;
 212              		.loc 1 12 1 view .LVU51
 213 0006 B0EE408A 		vmov.f32	s16, s0
 214              	.LVL12:
  14:Basic_Overdrive.cpp **** }
 215              		.loc 1 14 5 is_stmt 1 view .LVU52
  13:Basic_Overdrive.cpp ****     return (daisysp::SoftClip(pre) * post_gain_)*m_mix + in*(1-m_mix);
 216              		.loc 1 13 11 is_stmt 0 view .LVU53
 217 000a 90ED110A 		vldr.32	s0, [r0, #68]
 218              	.LVL13:
  12:Basic_Overdrive.cpp ****     float pre = pre_gain_ * in;
 219              		.loc 1 12 1 view .LVU54
 220 000e 0446     		mov	r4, r0
  14:Basic_Overdrive.cpp **** }
 221              		.loc 1 14 30 view .LVU55
 222 0010 28EE000A 		vmul.f32	s0, s16, s0
 223              	.LVL14:
  14:Basic_Overdrive.cpp **** }
 224              		.loc 1 14 30 view .LVU56
 225 0014 FFF7FEFF 		bl	_ZN7daisysp8SoftClipEf
 226              	.LVL15:
  14:Basic_Overdrive.cpp **** }
 227              		.loc 1 14 63 view .LVU57
 228 0018 F7EE007A 		vmov.f32	s15, #1.0e+0
  14:Basic_Overdrive.cpp **** }
 229              		.loc 1 14 50 view .LVU58
 230 001c D4ED136A 		vldr.32	s13, [r4, #76]
  14:Basic_Overdrive.cpp **** }
 231              		.loc 1 14 36 view .LVU59
 232 0020 94ED127A 		vldr.32	s14, [r4, #72]
  14:Basic_Overdrive.cpp **** }
 233              		.loc 1 14 63 view .LVU60
 234 0024 77EEE67A 		vsub.f32	s15, s15, s13
  14:Basic_Overdrive.cpp **** }
 235              		.loc 1 14 36 view .LVU61
ARM GAS  /tmp/cc4HmTtm.s 			page 11


 236 0028 20EE077A 		vmul.f32	s14, s0, s14
  14:Basic_Overdrive.cpp **** }
 237              		.loc 1 14 60 view .LVU62
 238 002c 27EE880A 		vmul.f32	s0, s15, s16
  15:Basic_Overdrive.cpp **** 
 239              		.loc 1 15 1 view .LVU63
 240 0030 BDEC028B 		vldm	sp!, {d8}
 241              		.cfi_restore 80
 242              		.cfi_restore 81
 243              		.cfi_def_cfa_offset 8
 244              	.LVL16:
  15:Basic_Overdrive.cpp **** 
 245              		.loc 1 15 1 view .LVU64
 246 0034 A7EE260A 		vfma.f32	s0, s14, s13
 247 0038 10BD     		pop	{r4, pc}
  15:Basic_Overdrive.cpp **** 
 248              		.loc 1 15 1 view .LVU65
 249              		.cfi_endproc
 250              	.LFE3528:
 252              		.section	.text._ZN15Basic_Overdrive8SetDriveEf,"ax",%progbits
 253              		.align	1
 254              		.global	_ZN15Basic_Overdrive8SetDriveEf
 255              		.syntax unified
 256              		.thumb
 257              		.thumb_func
 258              		.fpu fpv5-d16
 260              	_ZN15Basic_Overdrive8SetDriveEf:
 261              	.LVL17:
 262              	.LFB3529:
  18:Basic_Overdrive.cpp ****     drive  = daisysp::fclamp(drive, 0.f, 1.f);
 263              		.loc 1 18 1 is_stmt 1 view -0
 264              		.cfi_startproc
 265              		@ args = 0, pretend = 0, frame = 0
 266              		@ frame_needed = 0, uses_anonymous_args = 0
  19:Basic_Overdrive.cpp ****     drive_ = 2.f * drive;
 267              		.loc 1 19 5 view .LVU67
 268              	.LBB26:
 269              	.LBI26:
  64:/home/luca/Desktop/DaisyExamples/DaisySP//Source/Utility/dsp.h **** {
 270              		.loc 2 64 14 view .LVU68
 271              	.LBE26:
  66:/home/luca/Desktop/DaisyExamples/DaisySP//Source/Utility/dsp.h **** }
 272              		.loc 2 66 5 view .LVU69
 273              	.LBB39:
 274              	.LBB27:
 275              	.LBI27:
  40:/home/luca/Desktop/DaisyExamples/DaisySP//Source/Utility/dsp.h **** {
 276              		.loc 2 40 14 view .LVU70
 277              	.LBB28:
  42:/home/luca/Desktop/DaisyExamples/DaisySP//Source/Utility/dsp.h **** #ifdef __arm__
 278              		.loc 2 42 5 view .LVU71
  44:/home/luca/Desktop/DaisyExamples/DaisySP//Source/Utility/dsp.h **** #else
 279              		.loc 2 44 5 view .LVU72
 280              	.LBE28:
 281              	.LBE27:
 282              	.LBE39:
  18:Basic_Overdrive.cpp ****     drive  = daisysp::fclamp(drive, 0.f, 1.f);
ARM GAS  /tmp/cc4HmTtm.s 			page 12


 283              		.loc 1 18 1 is_stmt 0 view .LVU73
 284 0000 10B5     		push	{r4, lr}
 285              		.cfi_def_cfa_offset 8
 286              		.cfi_offset 4, -8
 287              		.cfi_offset 14, -4
 288              	.LBB40:
 289              	.LBB31:
 290              	.LBB29:
  44:/home/luca/Desktop/DaisyExamples/DaisySP//Source/Utility/dsp.h **** #else
 291              		.loc 2 44 5 view .LVU74
 292 0002 DFED1C7A 		vldr.32	s15, .L19
 293              	.LBE29:
 294              	.LBE31:
 295              	.LBE40:
  24:Basic_Overdrive.cpp ****     pre_gain_              = pre_gain_a + (pre_gain_b - pre_gain_a) * drive_2;
 296              		.loc 1 24 17 view .LVU75
 297 0006 B3EE086A 		vmov.f32	s12, #2.4e+1
 298              	.LBB41:
 299              	.LBB32:
 300              	.LBB30:
  44:/home/luca/Desktop/DaisyExamples/DaisySP//Source/Utility/dsp.h **** #else
 301              		.loc 2 44 5 view .LVU76
 302              		.syntax unified
 303              	@ 44 "/home/luca/Desktop/DaisyExamples/DaisySP//Source/Utility/dsp.h" 1
 304 000a C0FE277A 		vmaxnm.f32 s15, s0, s15
 305              	@ 0 "" 2
 306              	.LVL18:
  48:/home/luca/Desktop/DaisyExamples/DaisySP//Source/Utility/dsp.h **** }
 307              		.loc 2 48 5 is_stmt 1 view .LVU77
  48:/home/luca/Desktop/DaisyExamples/DaisySP//Source/Utility/dsp.h **** }
 308              		.loc 2 48 5 is_stmt 0 view .LVU78
 309              		.thumb
 310              		.syntax unified
 311              	.LBE30:
 312              	.LBE32:
 313              	.LBB33:
 314              	.LBI33:
  51:/home/luca/Desktop/DaisyExamples/DaisySP//Source/Utility/dsp.h **** {
 315              		.loc 2 51 14 is_stmt 1 view .LVU79
 316              	.LBB34:
  53:/home/luca/Desktop/DaisyExamples/DaisySP//Source/Utility/dsp.h **** #ifdef __arm__
 317              		.loc 2 53 5 view .LVU80
  55:/home/luca/Desktop/DaisyExamples/DaisySP//Source/Utility/dsp.h **** #else
 318              		.loc 2 55 5 view .LVU81
 319              	.LBE34:
 320              	.LBE33:
 321              	.LBE41:
  18:Basic_Overdrive.cpp ****     drive  = daisysp::fclamp(drive, 0.f, 1.f);
 322              		.loc 1 18 1 is_stmt 0 view .LVU82
 323 000e 2DED028B 		vpush.64	{d8}
 324              		.cfi_def_cfa_offset 16
 325              		.cfi_offset 80, -16
 326              		.cfi_offset 81, -12
 327              	.LBB42:
 328              	.LBB37:
 329              	.LBB35:
  55:/home/luca/Desktop/DaisyExamples/DaisySP//Source/Utility/dsp.h **** #else
ARM GAS  /tmp/cc4HmTtm.s 			page 13


 330              		.loc 2 55 5 view .LVU83
 331 0012 B7EE008A 		vmov.f32	s16, #1.0e+0
 332              	.LBE35:
 333              	.LBE37:
 334              	.LBE42:
  28:Basic_Overdrive.cpp **** }
 335              		.loc 1 28 79 view .LVU84
 336 0016 9FED180A 		vldr.32	s0, .L19+4
 337              	.LVL19:
 338              	.LBB43:
 339              	.LBB38:
 340              	.LBB36:
  55:/home/luca/Desktop/DaisyExamples/DaisySP//Source/Utility/dsp.h **** #else
 341              		.loc 2 55 5 view .LVU85
 342              		.syntax unified
 343              	@ 55 "/home/luca/Desktop/DaisyExamples/DaisySP//Source/Utility/dsp.h" 1
 344 001a C7FEC87A 		vminnm.f32 s15, s15, s16
 345              	@ 0 "" 2
 346              	.LVL20:
  59:/home/luca/Desktop/DaisyExamples/DaisySP//Source/Utility/dsp.h **** }
 347              		.loc 2 59 5 is_stmt 1 view .LVU86
  59:/home/luca/Desktop/DaisyExamples/DaisySP//Source/Utility/dsp.h **** }
 348              		.loc 2 59 5 is_stmt 0 view .LVU87
 349              		.thumb
 350              		.syntax unified
 351              	.LBE36:
 352              	.LBE38:
 353              	.LBE43:
  20:Basic_Overdrive.cpp **** 
 354              		.loc 1 20 5 is_stmt 1 view .LVU88
  20:Basic_Overdrive.cpp **** 
 355              		.loc 1 20 18 is_stmt 0 view .LVU89
 356 001e 77EEA77A 		vadd.f32	s15, s15, s15
 357              	.LVL21:
  18:Basic_Overdrive.cpp ****     drive  = daisysp::fclamp(drive, 0.f, 1.f);
 358              		.loc 1 18 1 view .LVU90
 359 0022 0446     		mov	r4, r0
  22:Basic_Overdrive.cpp ****     const float pre_gain_a = drive_ * 0.5f;
 360              		.loc 1 22 17 view .LVU91
 361 0024 67EEA76A 		vmul.f32	s13, s15, s15
  20:Basic_Overdrive.cpp **** 
 362              		.loc 1 20 12 view .LVU92
 363 0028 C0ED107A 		vstr.32	s15, [r0, #64]
  22:Basic_Overdrive.cpp ****     const float pre_gain_a = drive_ * 0.5f;
 364              		.loc 1 22 5 is_stmt 1 view .LVU93
 365              	.LVL22:
  23:Basic_Overdrive.cpp ****     const float pre_gain_b = drive_2 * drive_2 * drive_ * 24.0f;
 366              		.loc 1 23 5 view .LVU94
  24:Basic_Overdrive.cpp ****     pre_gain_              = pre_gain_a + (pre_gain_b - pre_gain_a) * drive_2;
 367              		.loc 1 24 5 view .LVU95
  25:Basic_Overdrive.cpp **** 
 368              		.loc 1 25 5 view .LVU96
  24:Basic_Overdrive.cpp ****     pre_gain_              = pre_gain_a + (pre_gain_b - pre_gain_a) * drive_2;
 369              		.loc 1 24 38 is_stmt 0 view .LVU97
 370 002c 26EEA67A 		vmul.f32	s14, s13, s13
  24:Basic_Overdrive.cpp ****     pre_gain_              = pre_gain_a + (pre_gain_b - pre_gain_a) * drive_2;
 371              		.loc 1 24 48 view .LVU98
ARM GAS  /tmp/cc4HmTtm.s 			page 14


 372 0030 27EE277A 		vmul.f32	s14, s14, s15
  24:Basic_Overdrive.cpp ****     pre_gain_              = pre_gain_a + (pre_gain_b - pre_gain_a) * drive_2;
 373              		.loc 1 24 17 view .LVU99
 374 0034 27EE067A 		vmul.f32	s14, s14, s12
 375              	.LVL23:
  25:Basic_Overdrive.cpp **** 
 376              		.loc 1 25 55 view .LVU100
 377 0038 B6EE006A 		vmov.f32	s12, #5.0e-1
 378 003c A7EEC67A 		vfms.f32	s14, s15, s12
 379              	.LVL24:
  25:Basic_Overdrive.cpp **** 
 380              		.loc 1 25 69 view .LVU101
 381 0040 27EE267A 		vmul.f32	s14, s14, s13
  27:Basic_Overdrive.cpp ****     post_gain_ = 1.0f / daisysp::SoftClip(0.33f + drive_squashed * (pre_gain_ - 0.33f));
 382              		.loc 1 27 49 view .LVU102
 383 0044 F0EE006A 		vmov.f32	s13, #2.0e+0
 384              	.LVL25:
  25:Basic_Overdrive.cpp **** 
 385              		.loc 1 25 41 view .LVU103
 386 0048 A7EE867A 		vfma.f32	s14, s15, s12
  27:Basic_Overdrive.cpp ****     post_gain_ = 1.0f / daisysp::SoftClip(0.33f + drive_squashed * (pre_gain_ - 0.33f));
 387              		.loc 1 27 49 view .LVU104
 388 004c 76EEE76A 		vsub.f32	s13, s13, s15
  27:Basic_Overdrive.cpp ****     post_gain_ = 1.0f / daisysp::SoftClip(0.33f + drive_squashed * (pre_gain_ - 0.33f));
 389              		.loc 1 27 17 view .LVU105
 390 0050 66EEA77A 		vmul.f32	s15, s13, s15
 391              	.LVL26:
  25:Basic_Overdrive.cpp **** 
 392              		.loc 1 25 28 view .LVU106
 393 0054 80ED117A 		vstr.32	s14, [r0, #68]
  27:Basic_Overdrive.cpp ****     post_gain_ = 1.0f / daisysp::SoftClip(0.33f + drive_squashed * (pre_gain_ - 0.33f));
 394              		.loc 1 27 5 is_stmt 1 view .LVU107
  28:Basic_Overdrive.cpp **** }
 395              		.loc 1 28 5 view .LVU108
  28:Basic_Overdrive.cpp **** }
 396              		.loc 1 28 79 is_stmt 0 view .LVU109
 397 0058 37EE407A 		vsub.f32	s14, s14, s0
  28:Basic_Overdrive.cpp **** }
 398              		.loc 1 28 42 view .LVU110
 399 005c A7EE270A 		vfma.f32	s0, s14, s15
 400 0060 FFF7FEFF 		bl	_ZN7daisysp8SoftClipEf
 401              	.LVL27:
  28:Basic_Overdrive.cpp **** }
 402              		.loc 1 28 23 view .LVU111
 403 0064 C8EE007A 		vdiv.f32	s15, s16, s0
  29:Basic_Overdrive.cpp **** 
 404              		.loc 1 29 1 view .LVU112
 405 0068 BDEC028B 		vldm	sp!, {d8}
 406              		.cfi_restore 80
 407              		.cfi_restore 81
 408              		.cfi_def_cfa_offset 8
  28:Basic_Overdrive.cpp **** }
 409              		.loc 1 28 16 view .LVU113
 410 006c C4ED127A 		vstr.32	s15, [r4, #72]
  29:Basic_Overdrive.cpp **** 
 411              		.loc 1 29 1 view .LVU114
 412 0070 10BD     		pop	{r4, pc}
ARM GAS  /tmp/cc4HmTtm.s 			page 15


 413              	.LVL28:
 414              	.L20:
  29:Basic_Overdrive.cpp **** 
 415              		.loc 1 29 1 view .LVU115
 416 0072 00BF     		.align	2
 417              	.L19:
 418 0074 00000000 		.word	0
 419 0078 C3F5A83E 		.word	1051260355
 420              		.cfi_endproc
 421              	.LFE3529:
 423              		.section	.text._ZN15Basic_Overdrive4InitEf,"ax",%progbits
 424              		.align	1
 425              		.global	_ZN15Basic_Overdrive4InitEf
 426              		.syntax unified
 427              		.thumb
 428              		.thumb_func
 429              		.fpu fpv5-d16
 431              	_ZN15Basic_Overdrive4InitEf:
 432              	.LVL29:
 433              	.LFB3527:
   6:Basic_Overdrive.cpp ****     m_sample_rate = sample_rate;
 434              		.loc 1 6 1 is_stmt 1 view -0
 435              		.cfi_startproc
 436              		@ args = 0, pretend = 0, frame = 0
 437              		@ frame_needed = 0, uses_anonymous_args = 0
 438              		@ link register save eliminated.
   7:Basic_Overdrive.cpp ****     SetDrive(.5f);
 439              		.loc 1 7 5 view .LVU117
   7:Basic_Overdrive.cpp ****     SetDrive(.5f);
 440              		.loc 1 7 19 is_stmt 0 view .LVU118
 441 0000 80ED070A 		vstr.32	s0, [r0, #28]
   8:Basic_Overdrive.cpp **** }
 442              		.loc 1 8 5 is_stmt 1 view .LVU119
   8:Basic_Overdrive.cpp **** }
 443              		.loc 1 8 13 is_stmt 0 view .LVU120
 444 0004 B6EE000A 		vmov.f32	s0, #5.0e-1
 445              	.LVL30:
   8:Basic_Overdrive.cpp **** }
 446              		.loc 1 8 13 view .LVU121
 447 0008 FFF7FEBF 		b	_ZN15Basic_Overdrive8SetDriveEf
 448              	.LVL31:
   8:Basic_Overdrive.cpp **** }
 449              		.loc 1 8 13 view .LVU122
 450              		.cfi_endproc
 451              	.LFE3527:
 453              		.section	.text._ZN15Basic_Overdrive8SetParamEf,"ax",%progbits
 454              		.align	1
 455              		.global	_ZN15Basic_Overdrive8SetParamEf
 456              		.syntax unified
 457              		.thumb
 458              		.thumb_func
 459              		.fpu fpv5-d16
 461              	_ZN15Basic_Overdrive8SetParamEf:
 462              	.LVL32:
 463              	.LFB3531:
  45:Basic_Overdrive.cpp ****     }
  46:Basic_Overdrive.cpp **** }
ARM GAS  /tmp/cc4HmTtm.s 			page 16


  47:Basic_Overdrive.cpp **** 
  48:Basic_Overdrive.cpp **** float Basic_Overdrive::SetParam(float val)
  49:Basic_Overdrive.cpp **** {
 464              		.loc 1 49 1 is_stmt 1 view -0
 465              		.cfi_startproc
 466              		@ args = 0, pretend = 0, frame = 0
 467              		@ frame_needed = 0, uses_anonymous_args = 0
  50:Basic_Overdrive.cpp ****     switch (m_current_param)
 468              		.loc 1 50 5 view .LVU124
 469              		.loc 1 50 13 is_stmt 0 view .LVU125
 470 0000 426A     		ldr	r2, [r0, #36]
  49:Basic_Overdrive.cpp ****     switch (m_current_param)
 471              		.loc 1 49 1 view .LVU126
 472 0002 08B5     		push	{r3, lr}
 473              		.cfi_def_cfa_offset 8
 474              		.cfi_offset 3, -8
 475              		.cfi_offset 14, -4
 476 0004 2DED028B 		vpush.64	{d8}
 477              		.cfi_def_cfa_offset 16
 478              		.cfi_offset 80, -16
 479              		.cfi_offset 81, -12
  49:Basic_Overdrive.cpp ****     switch (m_current_param)
 480              		.loc 1 49 1 view .LVU127
 481 0008 B0EE408A 		vmov.f32	s16, s0
 482              		.loc 1 50 5 view .LVU128
 483 000c 42B1     		cbz	r2, .L23
 484 000e 012A     		cmp	r2, #1
 485 0010 09D0     		beq	.L24
 486 0012 BFEE008A 		vmov.f32	s16, #-1.0e+0
 487              	.LVL33:
 488              	.L25:
  51:Basic_Overdrive.cpp ****     {
  52:Basic_Overdrive.cpp ****         case 0:
  53:Basic_Overdrive.cpp ****             m_mix = val;
  54:Basic_Overdrive.cpp ****             return val;
  55:Basic_Overdrive.cpp ****         case 1:
  56:Basic_Overdrive.cpp ****             SetDrive(val);
  57:Basic_Overdrive.cpp ****             return val;
  58:Basic_Overdrive.cpp ****         // return negative if error occurs and no valid param is selected
  59:Basic_Overdrive.cpp ****         default:
  60:Basic_Overdrive.cpp ****             return -1.0f;
  61:Basic_Overdrive.cpp ****     }
  62:Basic_Overdrive.cpp **** }...
 489              		.loc 1 62 1 view .LVU129
 490 0016 B0EE480A 		vmov.f32	s0, s16
 491 001a BDEC028B 		vldm	sp!, {d8}
 492              		.cfi_remember_state
 493              		.cfi_restore 80
 494              		.cfi_restore 81
 495              		.cfi_def_cfa_offset 8
 496 001e 08BD     		pop	{r3, pc}
 497              	.LVL34:
 498              	.L23:
 499              		.cfi_restore_state
  52:Basic_Overdrive.cpp ****         case 0:
 500              		.loc 1 52 9 is_stmt 1 view .LVU130
  53:Basic_Overdrive.cpp ****             m_mix = val;
ARM GAS  /tmp/cc4HmTtm.s 			page 17


 501              		.loc 1 53 13 view .LVU131
  53:Basic_Overdrive.cpp ****             m_mix = val;
 502              		.loc 1 53 19 is_stmt 0 view .LVU132
 503 0020 80ED130A 		vstr.32	s0, [r0, #76]
  54:Basic_Overdrive.cpp ****             return val;
 504              		.loc 1 54 13 is_stmt 1 view .LVU133
  54:Basic_Overdrive.cpp ****             return val;
 505              		.loc 1 54 20 is_stmt 0 view .LVU134
 506 0024 F7E7     		b	.L25
 507              	.L24:
  55:Basic_Overdrive.cpp ****         case 1:
 508              		.loc 1 55 9 is_stmt 1 view .LVU135
  56:Basic_Overdrive.cpp ****             SetDrive(val);
 509              		.loc 1 56 13 view .LVU136
  56:Basic_Overdrive.cpp ****             SetDrive(val);
 510              		.loc 1 56 21 is_stmt 0 view .LVU137
 511 0026 FFF7FEFF 		bl	_ZN15Basic_Overdrive8SetDriveEf
 512              	.LVL35:
  57:Basic_Overdrive.cpp ****             return val;
 513              		.loc 1 57 13 is_stmt 1 view .LVU138
  57:Basic_Overdrive.cpp ****             return val;
 514              		.loc 1 57 20 is_stmt 0 view .LVU139
 515 002a F4E7     		b	.L25
 516              		.cfi_endproc
 517              	.LFE3531:
 519              		.global	_ZTV15Basic_Overdrive
 520              		.section	.rodata._ZTV15Basic_Overdrive,"a"
 521              		.align	2
 524              	_ZTV15Basic_Overdrive:
 525 0000 00000000 		.word	0
 526 0004 00000000 		.word	0
 527 0008 00000000 		.word	_ZN15Basic_Overdrive4InitEf
 528 000c 00000000 		.word	_ZN15Basic_Overdrive7ProcessEf
 529 0010 00000000 		.word	_ZN15Basic_Overdrive10CycleParamEv
 530 0014 00000000 		.word	_ZN15Basic_Overdrive8SetParamEf
 531              		.text
 532              	.Letext0:
 533              		.file 3 "/home/luca/DaisySeedDeveloper/gcc-arm-none-eabi-10-2020-q4-major/arm-none-eabi/include/ma
 534              		.file 4 "/home/luca/DaisySeedDeveloper/gcc-arm-none-eabi-10-2020-q4-major/arm-none-eabi/include/sy
 535              		.file 5 "/home/luca/DaisySeedDeveloper/gcc-arm-none-eabi-10-2020-q4-major/arm-none-eabi/include/st
 536              		.file 6 "/home/luca/DaisySeedDeveloper/gcc-arm-none-eabi-10-2020-q4-major/lib/gcc/arm-none-eabi/10
 537              		.file 7 "/home/luca/DaisySeedDeveloper/gcc-arm-none-eabi-10-2020-q4-major/arm-none-eabi/include/c+
 538              		.file 8 "/home/luca/DaisySeedDeveloper/gcc-arm-none-eabi-10-2020-q4-major/arm-none-eabi/include/c+
 539              		.file 9 "/home/luca/DaisySeedDeveloper/gcc-arm-none-eabi-10-2020-q4-major/arm-none-eabi/include/c+
 540              		.file 10 "/home/luca/DaisySeedDeveloper/gcc-arm-none-eabi-10-2020-q4-major/arm-none-eabi/include/c
 541              		.file 11 "/home/luca/DaisySeedDeveloper/gcc-arm-none-eabi-10-2020-q4-major/arm-none-eabi/include/c
 542              		.file 12 "/home/luca/DaisySeedDeveloper/gcc-arm-none-eabi-10-2020-q4-major/arm-none-eabi/include/c
 543              		.file 13 "/home/luca/DaisySeedDeveloper/gcc-arm-none-eabi-10-2020-q4-major/arm-none-eabi/include/c
 544              		.file 14 "/home/luca/DaisySeedDeveloper/gcc-arm-none-eabi-10-2020-q4-major/arm-none-eabi/include/c
 545              		.file 15 "/home/luca/DaisySeedDeveloper/gcc-arm-none-eabi-10-2020-q4-major/arm-none-eabi/include/c
 546              		.file 16 "/home/luca/DaisySeedDeveloper/gcc-arm-none-eabi-10-2020-q4-major/arm-none-eabi/include/c
 547              		.file 17 "/home/luca/DaisySeedDeveloper/gcc-arm-none-eabi-10-2020-q4-major/arm-none-eabi/include/c
 548              		.file 18 "/home/luca/DaisySeedDeveloper/gcc-arm-none-eabi-10-2020-q4-major/arm-none-eabi/include/c
 549              		.file 19 "/home/luca/DaisySeedDeveloper/gcc-arm-none-eabi-10-2020-q4-major/arm-none-eabi/include/c
 550              		.file 20 "/home/luca/DaisySeedDeveloper/gcc-arm-none-eabi-10-2020-q4-major/arm-none-eabi/include/c
 551              		.file 21 "/home/luca/DaisySeedDeveloper/gcc-arm-none-eabi-10-2020-q4-major/arm-none-eabi/include/c
 552              		.file 22 "/home/luca/DaisySeedDeveloper/gcc-arm-none-eabi-10-2020-q4-major/arm-none-eabi/include/c
ARM GAS  /tmp/cc4HmTtm.s 			page 18


 553              		.file 23 "/home/luca/DaisySeedDeveloper/gcc-arm-none-eabi-10-2020-q4-major/arm-none-eabi/include/c
 554              		.file 24 "/home/luca/DaisySeedDeveloper/gcc-arm-none-eabi-10-2020-q4-major/arm-none-eabi/include/c
 555              		.file 25 "/home/luca/DaisySeedDeveloper/gcc-arm-none-eabi-10-2020-q4-major/arm-none-eabi/include/c
 556              		.file 26 "/home/luca/DaisySeedDeveloper/gcc-arm-none-eabi-10-2020-q4-major/arm-none-eabi/include/c
 557              		.file 27 "/home/luca/DaisySeedDeveloper/gcc-arm-none-eabi-10-2020-q4-major/arm-none-eabi/include/c
 558              		.file 28 "/home/luca/DaisySeedDeveloper/gcc-arm-none-eabi-10-2020-q4-major/arm-none-eabi/include/c
 559              		.file 29 "/home/luca/DaisySeedDeveloper/gcc-arm-none-eabi-10-2020-q4-major/arm-none-eabi/include/c
 560              		.file 30 "/home/luca/DaisySeedDeveloper/gcc-arm-none-eabi-10-2020-q4-major/arm-none-eabi/include/c
 561              		.file 31 "/home/luca/DaisySeedDeveloper/gcc-arm-none-eabi-10-2020-q4-major/arm-none-eabi/include/c
 562              		.file 32 "/home/luca/DaisySeedDeveloper/gcc-arm-none-eabi-10-2020-q4-major/arm-none-eabi/include/c
 563              		.file 33 "/home/luca/DaisySeedDeveloper/gcc-arm-none-eabi-10-2020-q4-major/arm-none-eabi/include/s
 564              		.file 34 "<built-in>"
 565              		.file 35 "/home/luca/DaisySeedDeveloper/gcc-arm-none-eabi-10-2020-q4-major/arm-none-eabi/include/s
 566              		.file 36 "/home/luca/DaisySeedDeveloper/gcc-arm-none-eabi-10-2020-q4-major/arm-none-eabi/include/s
 567              		.file 37 "/home/luca/DaisySeedDeveloper/gcc-arm-none-eabi-10-2020-q4-major/arm-none-eabi/include/m
 568              		.file 38 "/home/luca/DaisySeedDeveloper/gcc-arm-none-eabi-10-2020-q4-major/arm-none-eabi/include/s
 569              		.file 39 "/home/luca/DaisySeedDeveloper/gcc-arm-none-eabi-10-2020-q4-major/arm-none-eabi/include/c
 570              		.file 40 "/home/luca/Desktop/DaisyExamples/DaisySP//Source/Control/adenv.h"
 571              		.file 41 "/home/luca/DaisySeedDeveloper/gcc-arm-none-eabi-10-2020-q4-major/lib/gcc/arm-none-eabi/1
 572              		.file 42 "/home/luca/DaisySeedDeveloper/gcc-arm-none-eabi-10-2020-q4-major/arm-none-eabi/include/w
 573              		.file 43 "/home/luca/DaisySeedDeveloper/gcc-arm-none-eabi-10-2020-q4-major/arm-none-eabi/include/l
 574              		.file 44 "/home/luca/DaisySeedDeveloper/gcc-arm-none-eabi-10-2020-q4-major/arm-none-eabi/include/s
 575              		.file 45 "/home/luca/DaisySeedDeveloper/gcc-arm-none-eabi-10-2020-q4-major/arm-none-eabi/include/c
 576              		.file 46 "/home/luca/DaisySeedDeveloper/gcc-arm-none-eabi-10-2020-q4-major/arm-none-eabi/include/s
 577              		.file 47 "Basic_Overdrive.h"
 578              		.file 48 "Effect.h"
ARM GAS  /tmp/cc4HmTtm.s 			page 19

