ARM GAS  /tmp/ccOjaarx.s 			page 1


   1              		.cpu cortex-m7
   2              		.eabi_attribute 28, 1
   3              		.eabi_attribute 20, 1
   4              		.eabi_attribute 21, 1
   5              		.eabi_attribute 23, 3
   6              		.eabi_attribute 24, 1
   7              		.eabi_attribute 25, 1
   8              		.eabi_attribute 26, 1
   9              		.eabi_attribute 30, 4
  10              		.eabi_attribute 34, 1
  11              		.eabi_attribute 18, 4
  12              		.file	"FXunit1.cpp"
  13              		.text
  14              	.Ltext0:
  15              		.cfi_sections	.debug_frame
  16              		.section	.text._ZN6Effect4InitEf,"axG",%progbits,_ZN6Effect4InitEf,comdat
  17              		.align	1
  18              		.weak	_ZN6Effect4InitEf
  19              		.arch armv7e-m
  20              		.syntax unified
  21              		.thumb
  22              		.thumb_func
  23              		.fpu fpv5-d16
  25              	_ZN6Effect4InitEf:
  26              	.LVL0:
  27              	.LFB1566:
  28              		.file 1 "Effect.h"
   1:Effect.h      **** #pragma once
   2:Effect.h      **** 
   3:Effect.h      **** #include <string>
   4:Effect.h      **** 
   5:Effect.h      **** class Effect
   6:Effect.h      **** {
   7:Effect.h      **** public:
   8:Effect.h      ****     Effect(std::string effect_name, int param_count)
   9:Effect.h      ****     :m_effect_name{effect_name}, m_sample_rate{48000.0f}, m_param_count{param_count}, m_current_par
  10:Effect.h      ****     ~Effect() {}
  11:Effect.h      **** 
  12:Effect.h      ****     virtual void Init(float sample_rate) {m_sample_rate = sample_rate;}
  29              		.loc 1 12 18 view -0
  30              		.cfi_startproc
  31              		@ args = 0, pretend = 0, frame = 0
  32              		@ frame_needed = 0, uses_anonymous_args = 0
  33              		@ link register save eliminated.
  34              		.loc 1 12 43 view .LVU1
  35              		.loc 1 12 57 is_stmt 0 view .LVU2
  36 0000 80ED070A 		vstr.32	s0, [r0, #28]
  37              		.loc 1 12 71 view .LVU3
  38 0004 7047     		bx	lr
  39              		.cfi_endproc
  40              	.LFE1566:
  42              		.section	.text._ZN6Bypass7ProcessEf,"axG",%progbits,_ZN6Bypass7ProcessEf,comdat
  43              		.align	1
  44              		.weak	_ZN6Bypass7ProcessEf
  45              		.syntax unified
  46              		.thumb
  47              		.thumb_func
ARM GAS  /tmp/ccOjaarx.s 			page 2


  48              		.fpu fpv5-d16
  50              	_ZN6Bypass7ProcessEf:
  51              	.LVL1:
  52              	.LFB3539:
  53              		.file 2 "Bypass.h"
   1:Bypass.h      **** #pragma once
   2:Bypass.h      **** 
   3:Bypass.h      **** #include "Effect.h"
   4:Bypass.h      **** 
   5:Bypass.h      **** class Bypass : public Effect
   6:Bypass.h      **** {
   7:Bypass.h      **** public:
   8:Bypass.h      ****     Bypass()
   9:Bypass.h      ****     :Effect("Bypass",1) {};
  10:Bypass.h      ****     ~Bypass() {};
  11:Bypass.h      **** 
  12:Bypass.h      ****     float Process(float val) {return val;}
  54              		.loc 2 12 11 is_stmt 1 view -0
  55              		.cfi_startproc
  56              		@ args = 0, pretend = 0, frame = 0
  57              		@ frame_needed = 0, uses_anonymous_args = 0
  58              		@ link register save eliminated.
  59              		.loc 2 12 31 view .LVU5
  60              		.loc 2 12 42 is_stmt 0 view .LVU6
  61 0000 7047     		bx	lr
  62              		.cfi_endproc
  63              	.LFE3539:
  65              		.section	.text._ZN6Bypass10CycleParamEv,"axG",%progbits,_ZN6Bypass10CycleParamEv,comdat
  66              		.align	1
  67              		.weak	_ZN6Bypass10CycleParamEv
  68              		.syntax unified
  69              		.thumb
  70              		.thumb_func
  71              		.fpu fpv5-d16
  73              	_ZN6Bypass10CycleParamEv:
  74              	.LVL2:
  75              	.LFB3540:
  13:Bypass.h      **** 
  14:Bypass.h      ****     void CycleParam() {m_current_param = 0;}
  76              		.loc 2 14 10 is_stmt 1 view -0
  77              		.cfi_startproc
  78              		@ args = 0, pretend = 0, frame = 0
  79              		@ frame_needed = 0, uses_anonymous_args = 0
  80              		@ link register save eliminated.
  81              		.loc 2 14 24 view .LVU8
  82              		.loc 2 14 40 is_stmt 0 view .LVU9
  83 0000 0023     		movs	r3, #0
  84 0002 4362     		str	r3, [r0, #36]
  85              		.loc 2 14 44 view .LVU10
  86 0004 7047     		bx	lr
  87              		.cfi_endproc
  88              	.LFE3540:
  90              		.section	.text._ZN6Bypass8SetParamEf,"axG",%progbits,_ZN6Bypass8SetParamEf,comdat
  91              		.align	1
  92              		.weak	_ZN6Bypass8SetParamEf
  93              		.syntax unified
  94              		.thumb
ARM GAS  /tmp/ccOjaarx.s 			page 3


  95              		.thumb_func
  96              		.fpu fpv5-d16
  98              	_ZN6Bypass8SetParamEf:
  99              	.LVL3:
 100              	.LFB3541:
  15:Bypass.h      **** 
  16:Bypass.h      ****     float SetParam(float val) {return val;}
 101              		.loc 2 16 11 is_stmt 1 view -0
 102              		.cfi_startproc
 103              		@ args = 0, pretend = 0, frame = 0
 104              		@ frame_needed = 0, uses_anonymous_args = 0
 105              		@ link register save eliminated.
 106              		.loc 2 16 32 view .LVU12
 107              		.loc 2 16 43 is_stmt 0 view .LVU13
 108 0000 7047     		bx	lr
 109              		.cfi_endproc
 110              	.LFE3541:
 112              		.section	.text._ZN5daisy9DaisySeedD2Ev,"axG",%progbits,_ZN5daisy9DaisySeedD5Ev,comdat
 113              		.align	1
 114              		.weak	_ZN5daisy9DaisySeedD2Ev
 115              		.syntax unified
 116              		.thumb
 117              		.thumb_func
 118              		.fpu fpv5-d16
 120              	_ZN5daisy9DaisySeedD2Ev:
 121              	.LVL4:
 122              	.LFB4709:
 123              		.file 3 "/home/luca/Desktop/DaisyExamples/libDaisy//src/daisy_seed.h"
   1:/home/luca/Desktop/DaisyExamples/libDaisy//src/daisy_seed.h **** #pragma once
   2:/home/luca/Desktop/DaisyExamples/libDaisy//src/daisy_seed.h **** #ifndef DSY_SEED_H
   3:/home/luca/Desktop/DaisyExamples/libDaisy//src/daisy_seed.h **** #define DSY_SEED_H
   4:/home/luca/Desktop/DaisyExamples/libDaisy//src/daisy_seed.h **** 
   5:/home/luca/Desktop/DaisyExamples/libDaisy//src/daisy_seed.h **** #include "daisy.h"
   6:/home/luca/Desktop/DaisyExamples/libDaisy//src/daisy_seed.h **** 
   7:/home/luca/Desktop/DaisyExamples/libDaisy//src/daisy_seed.h **** //Uncomment this out if you're still using the rev2 hardware
   8:/home/luca/Desktop/DaisyExamples/libDaisy//src/daisy_seed.h **** //#define SEED_REV2
   9:/home/luca/Desktop/DaisyExamples/libDaisy//src/daisy_seed.h **** 
  10:/home/luca/Desktop/DaisyExamples/libDaisy//src/daisy_seed.h **** namespace daisy
  11:/home/luca/Desktop/DaisyExamples/libDaisy//src/daisy_seed.h **** {
  12:/home/luca/Desktop/DaisyExamples/libDaisy//src/daisy_seed.h **** /**
  13:/home/luca/Desktop/DaisyExamples/libDaisy//src/daisy_seed.h ****    @brief This is the higher-level interface for the Daisy board. \n 
  14:/home/luca/Desktop/DaisyExamples/libDaisy//src/daisy_seed.h ****     All basic peripheral configuration/initialization is setup here. \n
  15:/home/luca/Desktop/DaisyExamples/libDaisy//src/daisy_seed.h **** 
  16:/home/luca/Desktop/DaisyExamples/libDaisy//src/daisy_seed.h ****    @ingroup boards
  17:/home/luca/Desktop/DaisyExamples/libDaisy//src/daisy_seed.h **** */
  18:/home/luca/Desktop/DaisyExamples/libDaisy//src/daisy_seed.h **** class DaisySeed
  19:/home/luca/Desktop/DaisyExamples/libDaisy//src/daisy_seed.h **** {
  20:/home/luca/Desktop/DaisyExamples/libDaisy//src/daisy_seed.h ****   public:
  21:/home/luca/Desktop/DaisyExamples/libDaisy//src/daisy_seed.h ****     DaisySeed() {}
  22:/home/luca/Desktop/DaisyExamples/libDaisy//src/daisy_seed.h ****     ~DaisySeed() {}
 124              		.loc 3 22 5 is_stmt 1 view -0
 125              		.cfi_startproc
 126              		@ args = 0, pretend = 0, frame = 0
 127              		@ frame_needed = 0, uses_anonymous_args = 0
 128              		@ link register save eliminated.
 129              	.LBB406:
 130              	.LBI406:
ARM GAS  /tmp/ccOjaarx.s 			page 4


 131              		.file 4 "/home/luca/Desktop/DaisyExamples/libDaisy//src/sys/system.h"
   1:/home/luca/Desktop/DaisyExamples/libDaisy//src/sys/system.h **** #ifndef DSY_SYSTEM_H
   2:/home/luca/Desktop/DaisyExamples/libDaisy//src/sys/system.h **** #define DSY_SYSTEM_H
   3:/home/luca/Desktop/DaisyExamples/libDaisy//src/sys/system.h **** 
   4:/home/luca/Desktop/DaisyExamples/libDaisy//src/sys/system.h **** #ifndef UNIT_TEST // for unit tests, a dummy implementation is provided below
   5:/home/luca/Desktop/DaisyExamples/libDaisy//src/sys/system.h **** 
   6:/home/luca/Desktop/DaisyExamples/libDaisy//src/sys/system.h **** #include <cstdint>
   7:/home/luca/Desktop/DaisyExamples/libDaisy//src/sys/system.h **** #include "per/tim.h"
   8:/home/luca/Desktop/DaisyExamples/libDaisy//src/sys/system.h **** 
   9:/home/luca/Desktop/DaisyExamples/libDaisy//src/sys/system.h **** namespace daisy
  10:/home/luca/Desktop/DaisyExamples/libDaisy//src/sys/system.h **** {
  11:/home/luca/Desktop/DaisyExamples/libDaisy//src/sys/system.h **** /** A handle for interacting with the Core System.
  12:/home/luca/Desktop/DaisyExamples/libDaisy//src/sys/system.h ****  ** This includes the Clock tree, MPU, global DMA initialization,
  13:/home/luca/Desktop/DaisyExamples/libDaisy//src/sys/system.h ****  ** cache handling, and any other necessary global initiailzation
  14:/home/luca/Desktop/DaisyExamples/libDaisy//src/sys/system.h ****  **
  15:/home/luca/Desktop/DaisyExamples/libDaisy//src/sys/system.h ****  ** @author shensley
  16:/home/luca/Desktop/DaisyExamples/libDaisy//src/sys/system.h ****  ** @ingroup system
  17:/home/luca/Desktop/DaisyExamples/libDaisy//src/sys/system.h ****  */
  18:/home/luca/Desktop/DaisyExamples/libDaisy//src/sys/system.h **** class System
  19:/home/luca/Desktop/DaisyExamples/libDaisy//src/sys/system.h **** {
  20:/home/luca/Desktop/DaisyExamples/libDaisy//src/sys/system.h ****   public:
  21:/home/luca/Desktop/DaisyExamples/libDaisy//src/sys/system.h ****     /** Contains settings for initializing the System */
  22:/home/luca/Desktop/DaisyExamples/libDaisy//src/sys/system.h ****     struct Config
  23:/home/luca/Desktop/DaisyExamples/libDaisy//src/sys/system.h ****     {
  24:/home/luca/Desktop/DaisyExamples/libDaisy//src/sys/system.h ****         /** Specifies the system clock frequency that feeds APB/AHB clocks, etc. */
  25:/home/luca/Desktop/DaisyExamples/libDaisy//src/sys/system.h ****         enum class SysClkFreq
  26:/home/luca/Desktop/DaisyExamples/libDaisy//src/sys/system.h ****         {
  27:/home/luca/Desktop/DaisyExamples/libDaisy//src/sys/system.h ****             FREQ_400MHZ,
  28:/home/luca/Desktop/DaisyExamples/libDaisy//src/sys/system.h ****             FREQ_480MHZ,
  29:/home/luca/Desktop/DaisyExamples/libDaisy//src/sys/system.h ****         };
  30:/home/luca/Desktop/DaisyExamples/libDaisy//src/sys/system.h **** 
  31:/home/luca/Desktop/DaisyExamples/libDaisy//src/sys/system.h ****         /** Method to call on the struct to set to defaults
  32:/home/luca/Desktop/DaisyExamples/libDaisy//src/sys/system.h ****          ** CPU Freq set to 400MHz
  33:/home/luca/Desktop/DaisyExamples/libDaisy//src/sys/system.h ****          ** Cache Enabled
  34:/home/luca/Desktop/DaisyExamples/libDaisy//src/sys/system.h ****          ** */
  35:/home/luca/Desktop/DaisyExamples/libDaisy//src/sys/system.h ****         void Defaults()
  36:/home/luca/Desktop/DaisyExamples/libDaisy//src/sys/system.h ****         {
  37:/home/luca/Desktop/DaisyExamples/libDaisy//src/sys/system.h ****             cpu_freq    = SysClkFreq::FREQ_400MHZ;
  38:/home/luca/Desktop/DaisyExamples/libDaisy//src/sys/system.h ****             use_dcache  = true;
  39:/home/luca/Desktop/DaisyExamples/libDaisy//src/sys/system.h ****             use_icache  = true;
  40:/home/luca/Desktop/DaisyExamples/libDaisy//src/sys/system.h ****             skip_clocks = false;
  41:/home/luca/Desktop/DaisyExamples/libDaisy//src/sys/system.h ****         }
  42:/home/luca/Desktop/DaisyExamples/libDaisy//src/sys/system.h **** 
  43:/home/luca/Desktop/DaisyExamples/libDaisy//src/sys/system.h ****         /** Method to call on the struct to set to boost mode:
  44:/home/luca/Desktop/DaisyExamples/libDaisy//src/sys/system.h ****          ** CPU Freq set to 480MHz
  45:/home/luca/Desktop/DaisyExamples/libDaisy//src/sys/system.h ****          ** Cache Enabled
  46:/home/luca/Desktop/DaisyExamples/libDaisy//src/sys/system.h ****          ** */
  47:/home/luca/Desktop/DaisyExamples/libDaisy//src/sys/system.h ****         void Boost()
  48:/home/luca/Desktop/DaisyExamples/libDaisy//src/sys/system.h ****         {
  49:/home/luca/Desktop/DaisyExamples/libDaisy//src/sys/system.h ****             cpu_freq    = SysClkFreq::FREQ_480MHZ;
  50:/home/luca/Desktop/DaisyExamples/libDaisy//src/sys/system.h ****             use_dcache  = true;
  51:/home/luca/Desktop/DaisyExamples/libDaisy//src/sys/system.h ****             use_icache  = true;
  52:/home/luca/Desktop/DaisyExamples/libDaisy//src/sys/system.h ****             skip_clocks = false;
  53:/home/luca/Desktop/DaisyExamples/libDaisy//src/sys/system.h ****         }
  54:/home/luca/Desktop/DaisyExamples/libDaisy//src/sys/system.h **** 
  55:/home/luca/Desktop/DaisyExamples/libDaisy//src/sys/system.h ****         SysClkFreq cpu_freq;
  56:/home/luca/Desktop/DaisyExamples/libDaisy//src/sys/system.h ****         bool       use_dcache;
ARM GAS  /tmp/ccOjaarx.s 			page 5


  57:/home/luca/Desktop/DaisyExamples/libDaisy//src/sys/system.h ****         bool       use_icache;
  58:/home/luca/Desktop/DaisyExamples/libDaisy//src/sys/system.h ****         bool       skip_clocks;
  59:/home/luca/Desktop/DaisyExamples/libDaisy//src/sys/system.h ****     };
  60:/home/luca/Desktop/DaisyExamples/libDaisy//src/sys/system.h **** 
  61:/home/luca/Desktop/DaisyExamples/libDaisy//src/sys/system.h ****     /** Describes the different regions of memory available to the Daisy */
  62:/home/luca/Desktop/DaisyExamples/libDaisy//src/sys/system.h ****     enum MemoryRegion
  63:/home/luca/Desktop/DaisyExamples/libDaisy//src/sys/system.h ****     {
  64:/home/luca/Desktop/DaisyExamples/libDaisy//src/sys/system.h ****         INTERNAL_FLASH = 0,
  65:/home/luca/Desktop/DaisyExamples/libDaisy//src/sys/system.h ****         ITCMRAM,
  66:/home/luca/Desktop/DaisyExamples/libDaisy//src/sys/system.h ****         DTCMRAM,
  67:/home/luca/Desktop/DaisyExamples/libDaisy//src/sys/system.h ****         SRAM_D1,
  68:/home/luca/Desktop/DaisyExamples/libDaisy//src/sys/system.h ****         SRAM_D2,
  69:/home/luca/Desktop/DaisyExamples/libDaisy//src/sys/system.h ****         SRAM_D3,
  70:/home/luca/Desktop/DaisyExamples/libDaisy//src/sys/system.h ****         SDRAM,
  71:/home/luca/Desktop/DaisyExamples/libDaisy//src/sys/system.h ****         QSPI,
  72:/home/luca/Desktop/DaisyExamples/libDaisy//src/sys/system.h ****         INVALID_ADDRESS,
  73:/home/luca/Desktop/DaisyExamples/libDaisy//src/sys/system.h ****     };
  74:/home/luca/Desktop/DaisyExamples/libDaisy//src/sys/system.h **** 
  75:/home/luca/Desktop/DaisyExamples/libDaisy//src/sys/system.h ****     /** Bootloader struct for controlling bootloading parameters */
  76:/home/luca/Desktop/DaisyExamples/libDaisy//src/sys/system.h ****     struct BootInfo
  77:/home/luca/Desktop/DaisyExamples/libDaisy//src/sys/system.h ****     {
  78:/home/luca/Desktop/DaisyExamples/libDaisy//src/sys/system.h ****         enum class Type : uint32_t
  79:/home/luca/Desktop/DaisyExamples/libDaisy//src/sys/system.h ****         {
  80:/home/luca/Desktop/DaisyExamples/libDaisy//src/sys/system.h ****             INVALID      = 0x00000000,
  81:/home/luca/Desktop/DaisyExamples/libDaisy//src/sys/system.h ****             JUMP         = 0xDEADBEEF,
  82:/home/luca/Desktop/DaisyExamples/libDaisy//src/sys/system.h ****             SKIP_TIMEOUT = 0x5AFEB007,
  83:/home/luca/Desktop/DaisyExamples/libDaisy//src/sys/system.h ****             INF_TIMEOUT  = 0xB0074EFA,
  84:/home/luca/Desktop/DaisyExamples/libDaisy//src/sys/system.h ****         } status;
  85:/home/luca/Desktop/DaisyExamples/libDaisy//src/sys/system.h ****         uint32_t data;
  86:/home/luca/Desktop/DaisyExamples/libDaisy//src/sys/system.h ****         enum class Version : uint32_t
  87:/home/luca/Desktop/DaisyExamples/libDaisy//src/sys/system.h ****         {
  88:/home/luca/Desktop/DaisyExamples/libDaisy//src/sys/system.h ****             LT_v6_0 = 0, // Less than v6.0
  89:/home/luca/Desktop/DaisyExamples/libDaisy//src/sys/system.h ****             NONE,        // No bootloader present
  90:/home/luca/Desktop/DaisyExamples/libDaisy//src/sys/system.h ****             v6_0,        // v6.0
  91:/home/luca/Desktop/DaisyExamples/libDaisy//src/sys/system.h ****             v6_1,        // v6.1 or greater
  92:/home/luca/Desktop/DaisyExamples/libDaisy//src/sys/system.h ****             LAST
  93:/home/luca/Desktop/DaisyExamples/libDaisy//src/sys/system.h ****         } version;
  94:/home/luca/Desktop/DaisyExamples/libDaisy//src/sys/system.h ****     };
  95:/home/luca/Desktop/DaisyExamples/libDaisy//src/sys/system.h **** 
  96:/home/luca/Desktop/DaisyExamples/libDaisy//src/sys/system.h ****     System() {}
  97:/home/luca/Desktop/DaisyExamples/libDaisy//src/sys/system.h ****     ~System() {}
 132              		.loc 4 97 5 view .LVU15
 133              		.loc 4 97 5 is_stmt 0 view .LVU16
 134              	.LBE406:
 135              	.LBB407:
 136              	.LBI407:
 137              		.file 5 "/home/luca/Desktop/DaisyExamples/libDaisy//src/hid/usb.h"
   1:/home/luca/Desktop/DaisyExamples/libDaisy//src/hid/usb.h **** #pragma once
   2:/home/luca/Desktop/DaisyExamples/libDaisy//src/hid/usb.h **** #ifndef DSY_HID_USB_H
   3:/home/luca/Desktop/DaisyExamples/libDaisy//src/hid/usb.h **** #define DSY_HID_USB_H
   4:/home/luca/Desktop/DaisyExamples/libDaisy//src/hid/usb.h **** #include <stdint.h>
   5:/home/luca/Desktop/DaisyExamples/libDaisy//src/hid/usb.h **** #include <stdlib.h>
   6:/home/luca/Desktop/DaisyExamples/libDaisy//src/hid/usb.h **** 
   7:/home/luca/Desktop/DaisyExamples/libDaisy//src/hid/usb.h **** namespace daisy
   8:/home/luca/Desktop/DaisyExamples/libDaisy//src/hid/usb.h **** /** @addtogroup human_interface
   9:/home/luca/Desktop/DaisyExamples/libDaisy//src/hid/usb.h ****     @{
  10:/home/luca/Desktop/DaisyExamples/libDaisy//src/hid/usb.h **** */
ARM GAS  /tmp/ccOjaarx.s 			page 6


  11:/home/luca/Desktop/DaisyExamples/libDaisy//src/hid/usb.h **** 
  12:/home/luca/Desktop/DaisyExamples/libDaisy//src/hid/usb.h **** {
  13:/home/luca/Desktop/DaisyExamples/libDaisy//src/hid/usb.h **** /** 
  14:/home/luca/Desktop/DaisyExamples/libDaisy//src/hid/usb.h ****     @brief Interface for initializing and using the USB Peripherals on the daisy
  15:/home/luca/Desktop/DaisyExamples/libDaisy//src/hid/usb.h ****     @author Stephen Hensley
  16:/home/luca/Desktop/DaisyExamples/libDaisy//src/hid/usb.h ****     @date December 2019
  17:/home/luca/Desktop/DaisyExamples/libDaisy//src/hid/usb.h **** */
  18:/home/luca/Desktop/DaisyExamples/libDaisy//src/hid/usb.h **** class UsbHandle
  19:/home/luca/Desktop/DaisyExamples/libDaisy//src/hid/usb.h **** {
  20:/home/luca/Desktop/DaisyExamples/libDaisy//src/hid/usb.h ****   public:
  21:/home/luca/Desktop/DaisyExamples/libDaisy//src/hid/usb.h ****     /** Return values for USBHandle Functions */
  22:/home/luca/Desktop/DaisyExamples/libDaisy//src/hid/usb.h ****     enum class Result
  23:/home/luca/Desktop/DaisyExamples/libDaisy//src/hid/usb.h ****     {
  24:/home/luca/Desktop/DaisyExamples/libDaisy//src/hid/usb.h ****         OK,
  25:/home/luca/Desktop/DaisyExamples/libDaisy//src/hid/usb.h ****         ERR,
  26:/home/luca/Desktop/DaisyExamples/libDaisy//src/hid/usb.h ****     };
  27:/home/luca/Desktop/DaisyExamples/libDaisy//src/hid/usb.h **** 
  28:/home/luca/Desktop/DaisyExamples/libDaisy//src/hid/usb.h ****     /** Specified which of the two USB Peripherals to initialize. */
  29:/home/luca/Desktop/DaisyExamples/libDaisy//src/hid/usb.h ****     enum UsbPeriph
  30:/home/luca/Desktop/DaisyExamples/libDaisy//src/hid/usb.h ****     {
  31:/home/luca/Desktop/DaisyExamples/libDaisy//src/hid/usb.h ****         FS_INTERNAL, /**< Internal pin */
  32:/home/luca/Desktop/DaisyExamples/libDaisy//src/hid/usb.h ****         FS_EXTERNAL, /**< FS External D+ pin is Pin 38 (GPIO32). FS External D- pin is Pin 37 (GPIO
  33:/home/luca/Desktop/DaisyExamples/libDaisy//src/hid/usb.h ****         FS_BOTH,     /**< Both */
  34:/home/luca/Desktop/DaisyExamples/libDaisy//src/hid/usb.h ****     };
  35:/home/luca/Desktop/DaisyExamples/libDaisy//src/hid/usb.h **** 
  36:/home/luca/Desktop/DaisyExamples/libDaisy//src/hid/usb.h **** 
  37:/home/luca/Desktop/DaisyExamples/libDaisy//src/hid/usb.h ****     /** Function called upon reception of a buffer */
  38:/home/luca/Desktop/DaisyExamples/libDaisy//src/hid/usb.h ****     typedef void (*ReceiveCallback)(uint8_t* buff, uint32_t* len);
  39:/home/luca/Desktop/DaisyExamples/libDaisy//src/hid/usb.h **** 
  40:/home/luca/Desktop/DaisyExamples/libDaisy//src/hid/usb.h ****     UsbHandle() {}
  41:/home/luca/Desktop/DaisyExamples/libDaisy//src/hid/usb.h **** 
  42:/home/luca/Desktop/DaisyExamples/libDaisy//src/hid/usb.h ****     ~UsbHandle() {}
 138              		.loc 5 42 5 is_stmt 1 view .LVU17
 139              		.loc 5 42 5 is_stmt 0 view .LVU18
 140              	.LBE407:
 141              	.LBB408:
 142              	.LBI408:
 143              		.file 6 "/home/luca/Desktop/DaisyExamples/libDaisy//src/per/adc.h"
   1:/home/luca/Desktop/DaisyExamples/libDaisy//src/per/adc.h **** #pragma once
   2:/home/luca/Desktop/DaisyExamples/libDaisy//src/per/adc.h **** #ifndef DSY_ADC_H
   3:/home/luca/Desktop/DaisyExamples/libDaisy//src/per/adc.h **** #define DSY_ADC_H /**< Macro */
   4:/home/luca/Desktop/DaisyExamples/libDaisy//src/per/adc.h **** #include <stdint.h>
   5:/home/luca/Desktop/DaisyExamples/libDaisy//src/per/adc.h **** #include <stdlib.h>
   6:/home/luca/Desktop/DaisyExamples/libDaisy//src/per/adc.h **** #include "daisy_core.h"
   7:/home/luca/Desktop/DaisyExamples/libDaisy//src/per/adc.h **** #include "per/gpio.h"
   8:/home/luca/Desktop/DaisyExamples/libDaisy//src/per/adc.h **** 
   9:/home/luca/Desktop/DaisyExamples/libDaisy//src/per/adc.h **** #define DSY_ADC_MAX_CHANNELS 16 /**< Maximum number of ADC channels */
  10:/home/luca/Desktop/DaisyExamples/libDaisy//src/per/adc.h **** 
  11:/home/luca/Desktop/DaisyExamples/libDaisy//src/per/adc.h **** namespace daisy
  12:/home/luca/Desktop/DaisyExamples/libDaisy//src/per/adc.h **** {
  13:/home/luca/Desktop/DaisyExamples/libDaisy//src/per/adc.h **** /** @addtogroup per_analog
  14:/home/luca/Desktop/DaisyExamples/libDaisy//src/per/adc.h ****     @{
  15:/home/luca/Desktop/DaisyExamples/libDaisy//src/per/adc.h **** */
  16:/home/luca/Desktop/DaisyExamples/libDaisy//src/per/adc.h **** 
  17:/home/luca/Desktop/DaisyExamples/libDaisy//src/per/adc.h **** /* While there may not be many configuration options here,
  18:/home/luca/Desktop/DaisyExamples/libDaisy//src/per/adc.h **** using a struct like this allows us to add more configuration
  19:/home/luca/Desktop/DaisyExamples/libDaisy//src/per/adc.h **** later without breaking existing functionality.
ARM GAS  /tmp/ccOjaarx.s 			page 7


  20:/home/luca/Desktop/DaisyExamples/libDaisy//src/per/adc.h **** */
  21:/home/luca/Desktop/DaisyExamples/libDaisy//src/per/adc.h **** 
  22:/home/luca/Desktop/DaisyExamples/libDaisy//src/per/adc.h **** /** @brief   Configuration Structure for an ADC Channel 
  23:/home/luca/Desktop/DaisyExamples/libDaisy//src/per/adc.h ****  *  @details This can be used to configure a a single input, 
  24:/home/luca/Desktop/DaisyExamples/libDaisy//src/per/adc.h ****  *           or a multiplexed input, allowing up to 8 inputs on 
  25:/home/luca/Desktop/DaisyExamples/libDaisy//src/per/adc.h ****  *           one channel.
  26:/home/luca/Desktop/DaisyExamples/libDaisy//src/per/adc.h ****  *  @note    Sharing data lines to multiple muxes _is_ possible, but
  27:/home/luca/Desktop/DaisyExamples/libDaisy//src/per/adc.h ****  *           each channel sharing data lines must be set to the maximum
  28:/home/luca/Desktop/DaisyExamples/libDaisy//src/per/adc.h ****  *           number of channels, even if some multiplexers have fewer
  29:/home/luca/Desktop/DaisyExamples/libDaisy//src/per/adc.h ****  *           inputs connected.
  30:/home/luca/Desktop/DaisyExamples/libDaisy//src/per/adc.h **** */
  31:/home/luca/Desktop/DaisyExamples/libDaisy//src/per/adc.h **** struct AdcChannelConfig
  32:/home/luca/Desktop/DaisyExamples/libDaisy//src/per/adc.h **** {
  33:/home/luca/Desktop/DaisyExamples/libDaisy//src/per/adc.h ****     /** Which pin to use for multiplexing */
  34:/home/luca/Desktop/DaisyExamples/libDaisy//src/per/adc.h ****     enum MuxPin
  35:/home/luca/Desktop/DaisyExamples/libDaisy//src/per/adc.h ****     {
  36:/home/luca/Desktop/DaisyExamples/libDaisy//src/per/adc.h ****         MUX_SEL_0,    /**< & */
  37:/home/luca/Desktop/DaisyExamples/libDaisy//src/per/adc.h ****         MUX_SEL_1,    /**< & */
  38:/home/luca/Desktop/DaisyExamples/libDaisy//src/per/adc.h ****         MUX_SEL_2,    /**< & */
  39:/home/luca/Desktop/DaisyExamples/libDaisy//src/per/adc.h ****         MUX_SEL_LAST, /**< & */
  40:/home/luca/Desktop/DaisyExamples/libDaisy//src/per/adc.h ****     };
  41:/home/luca/Desktop/DaisyExamples/libDaisy//src/per/adc.h **** 
  42:/home/luca/Desktop/DaisyExamples/libDaisy//src/per/adc.h ****     /** \brief per channel conversion speed added to fixed time based on bitdepth, etc. */
  43:/home/luca/Desktop/DaisyExamples/libDaisy//src/per/adc.h ****     enum ConversionSpeed
  44:/home/luca/Desktop/DaisyExamples/libDaisy//src/per/adc.h ****     {
  45:/home/luca/Desktop/DaisyExamples/libDaisy//src/per/adc.h ****         SPEED_1CYCLES_5,
  46:/home/luca/Desktop/DaisyExamples/libDaisy//src/per/adc.h ****         SPEED_2CYCLES_5,
  47:/home/luca/Desktop/DaisyExamples/libDaisy//src/per/adc.h ****         SPEED_8CYCLES_5,
  48:/home/luca/Desktop/DaisyExamples/libDaisy//src/per/adc.h ****         SPEED_16CYCLES_5,
  49:/home/luca/Desktop/DaisyExamples/libDaisy//src/per/adc.h ****         SPEED_32CYCLES_5,
  50:/home/luca/Desktop/DaisyExamples/libDaisy//src/per/adc.h ****         SPEED_64CYCLES_5,
  51:/home/luca/Desktop/DaisyExamples/libDaisy//src/per/adc.h ****         SPEED_387CYCLES_5,
  52:/home/luca/Desktop/DaisyExamples/libDaisy//src/per/adc.h ****         SPEED_810CYCLES_5,
  53:/home/luca/Desktop/DaisyExamples/libDaisy//src/per/adc.h ****     };
  54:/home/luca/Desktop/DaisyExamples/libDaisy//src/per/adc.h **** 
  55:/home/luca/Desktop/DaisyExamples/libDaisy//src/per/adc.h ****     /** Initializes a single ADC pin as an ADC. 
  56:/home/luca/Desktop/DaisyExamples/libDaisy//src/per/adc.h ****     \param pin Pin to init.
  57:/home/luca/Desktop/DaisyExamples/libDaisy//src/per/adc.h ****     \param speed conversion speed for this pin defaults to 8.5 cycles
  58:/home/luca/Desktop/DaisyExamples/libDaisy//src/per/adc.h ****      */
  59:/home/luca/Desktop/DaisyExamples/libDaisy//src/per/adc.h ****     void InitSingle(dsy_gpio_pin pin, ConversionSpeed speed = SPEED_8CYCLES_5);
  60:/home/luca/Desktop/DaisyExamples/libDaisy//src/per/adc.h **** 
  61:/home/luca/Desktop/DaisyExamples/libDaisy//src/per/adc.h ****     /** 
  62:/home/luca/Desktop/DaisyExamples/libDaisy//src/per/adc.h ****     Initializes a single ADC pin as a Multiplexed ADC.
  63:/home/luca/Desktop/DaisyExamples/libDaisy//src/per/adc.h ****     Requires a CD405X Multiplexer connected to the pin.
  64:/home/luca/Desktop/DaisyExamples/libDaisy//src/per/adc.h ****     You only need to supply the mux pins that are required,
  65:/home/luca/Desktop/DaisyExamples/libDaisy//src/per/adc.h ****     e.g. a 4052 mux would only require mux_0 and mux_1.
  66:/home/luca/Desktop/DaisyExamples/libDaisy//src/per/adc.h ****     Internal Callbacks handle the pin addressing.
  67:/home/luca/Desktop/DaisyExamples/libDaisy//src/per/adc.h ****     \param adc_pin &
  68:/home/luca/Desktop/DaisyExamples/libDaisy//src/per/adc.h ****     \param mux_channels must be 1-8
  69:/home/luca/Desktop/DaisyExamples/libDaisy//src/per/adc.h ****     \param mux_0 First mux pin
  70:/home/luca/Desktop/DaisyExamples/libDaisy//src/per/adc.h ****     \param mux_1 Second mux pin
  71:/home/luca/Desktop/DaisyExamples/libDaisy//src/per/adc.h ****     \param mux_2 Third mux pin
  72:/home/luca/Desktop/DaisyExamples/libDaisy//src/per/adc.h ****     \param speed conversion speed for this pin defaults to 8.5 cycles
  73:/home/luca/Desktop/DaisyExamples/libDaisy//src/per/adc.h ****     */
  74:/home/luca/Desktop/DaisyExamples/libDaisy//src/per/adc.h ****     void InitMux(dsy_gpio_pin    adc_pin,
  75:/home/luca/Desktop/DaisyExamples/libDaisy//src/per/adc.h ****                  size_t          mux_channels,
  76:/home/luca/Desktop/DaisyExamples/libDaisy//src/per/adc.h ****                  dsy_gpio_pin    mux_0,
ARM GAS  /tmp/ccOjaarx.s 			page 8


  77:/home/luca/Desktop/DaisyExamples/libDaisy//src/per/adc.h ****                  dsy_gpio_pin    mux_1 = {DSY_GPIOX, 0},
  78:/home/luca/Desktop/DaisyExamples/libDaisy//src/per/adc.h ****                  dsy_gpio_pin    mux_2 = {DSY_GPIOX, 0},
  79:/home/luca/Desktop/DaisyExamples/libDaisy//src/per/adc.h ****                  ConversionSpeed speed = SPEED_8CYCLES_5);
  80:/home/luca/Desktop/DaisyExamples/libDaisy//src/per/adc.h **** 
  81:/home/luca/Desktop/DaisyExamples/libDaisy//src/per/adc.h ****     dsy_gpio        pin_;                   /**< & */
  82:/home/luca/Desktop/DaisyExamples/libDaisy//src/per/adc.h ****     dsy_gpio        mux_pin_[MUX_SEL_LAST]; /**< & */
  83:/home/luca/Desktop/DaisyExamples/libDaisy//src/per/adc.h ****     uint8_t         mux_channels_;          /**< & */
  84:/home/luca/Desktop/DaisyExamples/libDaisy//src/per/adc.h ****     ConversionSpeed speed_;
  85:/home/luca/Desktop/DaisyExamples/libDaisy//src/per/adc.h **** };
  86:/home/luca/Desktop/DaisyExamples/libDaisy//src/per/adc.h **** 
  87:/home/luca/Desktop/DaisyExamples/libDaisy//src/per/adc.h **** /**
  88:/home/luca/Desktop/DaisyExamples/libDaisy//src/per/adc.h ****    @brief Handler for analog to digital conversion
  89:/home/luca/Desktop/DaisyExamples/libDaisy//src/per/adc.h **** */
  90:/home/luca/Desktop/DaisyExamples/libDaisy//src/per/adc.h **** class AdcHandle
  91:/home/luca/Desktop/DaisyExamples/libDaisy//src/per/adc.h **** {
  92:/home/luca/Desktop/DaisyExamples/libDaisy//src/per/adc.h ****   public:
  93:/home/luca/Desktop/DaisyExamples/libDaisy//src/per/adc.h ****     /** Supported oversampling amounts */
  94:/home/luca/Desktop/DaisyExamples/libDaisy//src/per/adc.h ****     enum OverSampling
  95:/home/luca/Desktop/DaisyExamples/libDaisy//src/per/adc.h ****     {
  96:/home/luca/Desktop/DaisyExamples/libDaisy//src/per/adc.h ****         OVS_NONE, /**< & */
  97:/home/luca/Desktop/DaisyExamples/libDaisy//src/per/adc.h ****         OVS_4,    /**< & */
  98:/home/luca/Desktop/DaisyExamples/libDaisy//src/per/adc.h ****         OVS_8,    /**< & */
  99:/home/luca/Desktop/DaisyExamples/libDaisy//src/per/adc.h ****         OVS_16,   /**< & */
 100:/home/luca/Desktop/DaisyExamples/libDaisy//src/per/adc.h ****         OVS_32,   /**< & */
 101:/home/luca/Desktop/DaisyExamples/libDaisy//src/per/adc.h ****         OVS_64,   /**< & */
 102:/home/luca/Desktop/DaisyExamples/libDaisy//src/per/adc.h ****         OVS_128,  /**< & */
 103:/home/luca/Desktop/DaisyExamples/libDaisy//src/per/adc.h ****         OVS_256,  /**< & */
 104:/home/luca/Desktop/DaisyExamples/libDaisy//src/per/adc.h ****         OVS_512,  /**< & */
 105:/home/luca/Desktop/DaisyExamples/libDaisy//src/per/adc.h ****         OVS_1024, /**< & */
 106:/home/luca/Desktop/DaisyExamples/libDaisy//src/per/adc.h ****         OVS_LAST, /**< & */
 107:/home/luca/Desktop/DaisyExamples/libDaisy//src/per/adc.h ****     };
 108:/home/luca/Desktop/DaisyExamples/libDaisy//src/per/adc.h **** 
 109:/home/luca/Desktop/DaisyExamples/libDaisy//src/per/adc.h ****     AdcHandle() {}
 110:/home/luca/Desktop/DaisyExamples/libDaisy//src/per/adc.h ****     ~AdcHandle() {}
 144              		.loc 6 110 5 is_stmt 1 view .LVU19
 145              		.loc 6 110 5 is_stmt 0 view .LVU20
 146              	.LBE408:
 147              	.LBB409:
 148              	.LBI409:
 149              		.file 7 "/home/luca/Desktop/DaisyExamples/libDaisy//src/hid/audio.h"
   1:/home/luca/Desktop/DaisyExamples/libDaisy//src/hid/audio.h **** #ifndef DSY_AUDIO_H
   2:/home/luca/Desktop/DaisyExamples/libDaisy//src/hid/audio.h **** #define DSY_AUDIO_H /**< & */
   3:/home/luca/Desktop/DaisyExamples/libDaisy//src/hid/audio.h **** 
   4:/home/luca/Desktop/DaisyExamples/libDaisy//src/hid/audio.h **** #include "per/sai.h"
   5:/home/luca/Desktop/DaisyExamples/libDaisy//src/hid/audio.h **** 
   6:/home/luca/Desktop/DaisyExamples/libDaisy//src/hid/audio.h **** namespace daisy
   7:/home/luca/Desktop/DaisyExamples/libDaisy//src/hid/audio.h **** {
   8:/home/luca/Desktop/DaisyExamples/libDaisy//src/hid/audio.h **** /** @brief Audio Engine Handle
   9:/home/luca/Desktop/DaisyExamples/libDaisy//src/hid/audio.h ****  *  @ingroup audio 
  10:/home/luca/Desktop/DaisyExamples/libDaisy//src/hid/audio.h ****  *  @details This class allows for higher level access to an audio engine.
  11:/home/luca/Desktop/DaisyExamples/libDaisy//src/hid/audio.h ****  *           If you're using a SOM like the DaisySeed or DaisyPatchSM (or any 
  12:/home/luca/Desktop/DaisyExamples/libDaisy//src/hid/audio.h ****  *            board that includes one of those objects) then the intialization
  13:/home/luca/Desktop/DaisyExamples/libDaisy//src/hid/audio.h ****  *            is already taken  care of.
  14:/home/luca/Desktop/DaisyExamples/libDaisy//src/hid/audio.h ****  *           If you're setting up your own custom hardware, or need to make changes
  15:/home/luca/Desktop/DaisyExamples/libDaisy//src/hid/audio.h ****  *           you will have to take the following steps:
  16:/home/luca/Desktop/DaisyExamples/libDaisy//src/hid/audio.h ****  *             1. Create and Initialize an SaiHandle or two depending on your requirements
  17:/home/luca/Desktop/DaisyExamples/libDaisy//src/hid/audio.h ****  *             2. Initialize the Audio Handle with the desired settings and the Initialized SaiHand
ARM GAS  /tmp/ccOjaarx.s 			page 9


  18:/home/luca/Desktop/DaisyExamples/libDaisy//src/hid/audio.h ****  *             3. If the connected codec requires special configuration or initialization, do so
  19:/home/luca/Desktop/DaisyExamples/libDaisy//src/hid/audio.h ****  *             4. Write a callback method using either the AudioCallback or the InterleavingAudioCa
  20:/home/luca/Desktop/DaisyExamples/libDaisy//src/hid/audio.h ****  *             5. Start the Audio using one of the StartAudio function
  21:/home/luca/Desktop/DaisyExamples/libDaisy//src/hid/audio.h ****  */
  22:/home/luca/Desktop/DaisyExamples/libDaisy//src/hid/audio.h **** class AudioHandle
  23:/home/luca/Desktop/DaisyExamples/libDaisy//src/hid/audio.h **** {
  24:/home/luca/Desktop/DaisyExamples/libDaisy//src/hid/audio.h ****   public:
  25:/home/luca/Desktop/DaisyExamples/libDaisy//src/hid/audio.h ****     /** Manually configurable details about the Audio Engine */
  26:/home/luca/Desktop/DaisyExamples/libDaisy//src/hid/audio.h ****     /** TODO: Figure out how to get samplerate in here. */
  27:/home/luca/Desktop/DaisyExamples/libDaisy//src/hid/audio.h ****     struct Config
  28:/home/luca/Desktop/DaisyExamples/libDaisy//src/hid/audio.h ****     {
  29:/home/luca/Desktop/DaisyExamples/libDaisy//src/hid/audio.h ****         /** number of samples to process per callback */
  30:/home/luca/Desktop/DaisyExamples/libDaisy//src/hid/audio.h ****         size_t blocksize;
  31:/home/luca/Desktop/DaisyExamples/libDaisy//src/hid/audio.h **** 
  32:/home/luca/Desktop/DaisyExamples/libDaisy//src/hid/audio.h ****         /**< Sample rate of audio */
  33:/home/luca/Desktop/DaisyExamples/libDaisy//src/hid/audio.h ****         SaiHandle::Config::SampleRate samplerate;
  34:/home/luca/Desktop/DaisyExamples/libDaisy//src/hid/audio.h **** 
  35:/home/luca/Desktop/DaisyExamples/libDaisy//src/hid/audio.h ****         /** factor for adjustment before and after callback for hardware that may have extra headro
  36:/home/luca/Desktop/DaisyExamples/libDaisy//src/hid/audio.h ****         float postgain;
  37:/home/luca/Desktop/DaisyExamples/libDaisy//src/hid/audio.h **** 
  38:/home/luca/Desktop/DaisyExamples/libDaisy//src/hid/audio.h ****         /** factor for additional one-sided compensation to audio path for hardware that may
  39:/home/luca/Desktop/DaisyExamples/libDaisy//src/hid/audio.h ****          *  have unequal input/output ranges
  40:/home/luca/Desktop/DaisyExamples/libDaisy//src/hid/audio.h ****          */
  41:/home/luca/Desktop/DaisyExamples/libDaisy//src/hid/audio.h ****         float output_compensation;
  42:/home/luca/Desktop/DaisyExamples/libDaisy//src/hid/audio.h **** 
  43:/home/luca/Desktop/DaisyExamples/libDaisy//src/hid/audio.h ****         /** Sets default values for config struct */
  44:/home/luca/Desktop/DaisyExamples/libDaisy//src/hid/audio.h ****         Config()
  45:/home/luca/Desktop/DaisyExamples/libDaisy//src/hid/audio.h ****         : blocksize(48),
  46:/home/luca/Desktop/DaisyExamples/libDaisy//src/hid/audio.h ****           samplerate(SaiHandle::Config::SampleRate::SAI_48KHZ),
  47:/home/luca/Desktop/DaisyExamples/libDaisy//src/hid/audio.h ****           postgain(1.f),
  48:/home/luca/Desktop/DaisyExamples/libDaisy//src/hid/audio.h ****           output_compensation(1.f)
  49:/home/luca/Desktop/DaisyExamples/libDaisy//src/hid/audio.h ****         {
  50:/home/luca/Desktop/DaisyExamples/libDaisy//src/hid/audio.h ****         }
  51:/home/luca/Desktop/DaisyExamples/libDaisy//src/hid/audio.h ****     };
  52:/home/luca/Desktop/DaisyExamples/libDaisy//src/hid/audio.h **** 
  53:/home/luca/Desktop/DaisyExamples/libDaisy//src/hid/audio.h ****     enum class Result
  54:/home/luca/Desktop/DaisyExamples/libDaisy//src/hid/audio.h ****     {
  55:/home/luca/Desktop/DaisyExamples/libDaisy//src/hid/audio.h ****         OK,
  56:/home/luca/Desktop/DaisyExamples/libDaisy//src/hid/audio.h ****         ERR,
  57:/home/luca/Desktop/DaisyExamples/libDaisy//src/hid/audio.h ****     };
  58:/home/luca/Desktop/DaisyExamples/libDaisy//src/hid/audio.h **** 
  59:/home/luca/Desktop/DaisyExamples/libDaisy//src/hid/audio.h ****     /** Non-Interleaving input buffer
  60:/home/luca/Desktop/DaisyExamples/libDaisy//src/hid/audio.h ****      * Buffer arranged by float[chn][sample] 
  61:/home/luca/Desktop/DaisyExamples/libDaisy//src/hid/audio.h ****      * const so that the user can't modify the input
  62:/home/luca/Desktop/DaisyExamples/libDaisy//src/hid/audio.h ****      */
  63:/home/luca/Desktop/DaisyExamples/libDaisy//src/hid/audio.h ****     typedef const float* const* InputBuffer;
  64:/home/luca/Desktop/DaisyExamples/libDaisy//src/hid/audio.h **** 
  65:/home/luca/Desktop/DaisyExamples/libDaisy//src/hid/audio.h ****     /** Non-Interleaving output buffer
  66:/home/luca/Desktop/DaisyExamples/libDaisy//src/hid/audio.h ****      * Arranged by float[chn][sample] 
  67:/home/luca/Desktop/DaisyExamples/libDaisy//src/hid/audio.h ****      */
  68:/home/luca/Desktop/DaisyExamples/libDaisy//src/hid/audio.h ****     typedef float** OutputBuffer;
  69:/home/luca/Desktop/DaisyExamples/libDaisy//src/hid/audio.h **** 
  70:/home/luca/Desktop/DaisyExamples/libDaisy//src/hid/audio.h ****     /** Type for a Non-Interleaving audio callback 
  71:/home/luca/Desktop/DaisyExamples/libDaisy//src/hid/audio.h ****      * Non-Interleaving audio callbacks in daisy will be of this type
  72:/home/luca/Desktop/DaisyExamples/libDaisy//src/hid/audio.h ****      */
  73:/home/luca/Desktop/DaisyExamples/libDaisy//src/hid/audio.h ****     typedef void (*AudioCallback)(InputBuffer  in,
  74:/home/luca/Desktop/DaisyExamples/libDaisy//src/hid/audio.h ****                                   OutputBuffer out,
ARM GAS  /tmp/ccOjaarx.s 			page 10


  75:/home/luca/Desktop/DaisyExamples/libDaisy//src/hid/audio.h ****                                   size_t       size);
  76:/home/luca/Desktop/DaisyExamples/libDaisy//src/hid/audio.h **** 
  77:/home/luca/Desktop/DaisyExamples/libDaisy//src/hid/audio.h ****     /** Interleaving Input buffer
  78:/home/luca/Desktop/DaisyExamples/libDaisy//src/hid/audio.h ****      ** audio is prepared as { L0, R0, L1, R1, . . . LN, RN }]
  79:/home/luca/Desktop/DaisyExamples/libDaisy//src/hid/audio.h ****      ** this is const, as the user shouldn't modify it
  80:/home/luca/Desktop/DaisyExamples/libDaisy//src/hid/audio.h ****     */
  81:/home/luca/Desktop/DaisyExamples/libDaisy//src/hid/audio.h ****     typedef const float* InterleavingInputBuffer;
  82:/home/luca/Desktop/DaisyExamples/libDaisy//src/hid/audio.h **** 
  83:/home/luca/Desktop/DaisyExamples/libDaisy//src/hid/audio.h ****     /** Interleaving Output buffer 
  84:/home/luca/Desktop/DaisyExamples/libDaisy//src/hid/audio.h ****      ** audio is prepared as { L0, R0, L1, R1, . . . LN, RN }
  85:/home/luca/Desktop/DaisyExamples/libDaisy//src/hid/audio.h ****     */
  86:/home/luca/Desktop/DaisyExamples/libDaisy//src/hid/audio.h ****     typedef float* InterleavingOutputBuffer;
  87:/home/luca/Desktop/DaisyExamples/libDaisy//src/hid/audio.h **** 
  88:/home/luca/Desktop/DaisyExamples/libDaisy//src/hid/audio.h ****     /** Interleaving Audio Callback 
  89:/home/luca/Desktop/DaisyExamples/libDaisy//src/hid/audio.h ****      * Interleaving audio callbacks in daisy must be of this type
  90:/home/luca/Desktop/DaisyExamples/libDaisy//src/hid/audio.h ****      */
  91:/home/luca/Desktop/DaisyExamples/libDaisy//src/hid/audio.h ****     typedef void (*InterleavingAudioCallback)(InterleavingInputBuffer  in,
  92:/home/luca/Desktop/DaisyExamples/libDaisy//src/hid/audio.h ****                                               InterleavingOutputBuffer out,
  93:/home/luca/Desktop/DaisyExamples/libDaisy//src/hid/audio.h ****                                               size_t                   size);
  94:/home/luca/Desktop/DaisyExamples/libDaisy//src/hid/audio.h **** 
  95:/home/luca/Desktop/DaisyExamples/libDaisy//src/hid/audio.h ****     AudioHandle() : pimpl_(nullptr) {}
  96:/home/luca/Desktop/DaisyExamples/libDaisy//src/hid/audio.h ****     ~AudioHandle() {}
 150              		.loc 7 96 5 is_stmt 1 view .LVU21
 151              		.loc 7 96 5 is_stmt 0 view .LVU22
 152              	.LBE409:
 153              		.loc 3 22 19 view .LVU23
 154 0000 7047     		bx	lr
 155              		.cfi_endproc
 156              	.LFE4709:
 158              		.weak	_ZN5daisy9DaisySeedD1Ev
 159              		.thumb_set _ZN5daisy9DaisySeedD1Ev,_ZN5daisy9DaisySeedD2Ev
 160              		.section	.text._Z13AudioCallbackPKfPfj,"ax",%progbits
 161              		.align	1
 162              		.global	_Z13AudioCallbackPKfPfj
 163              		.syntax unified
 164              		.thumb
 165              		.thumb_func
 166              		.fpu fpv5-d16
 168              	_Z13AudioCallbackPKfPfj:
 169              	.LVL5:
 170              	.LFB4714:
 171              		.file 8 "FXunit1.cpp"
   1:FXunit1.cpp   **** #include "Basic_Overdrive.h"
   2:FXunit1.cpp   **** #include "Basic_Delay.h"
   3:FXunit1.cpp   **** #include "Bypass.h"
   4:FXunit1.cpp   **** 
   5:FXunit1.cpp   **** #include "daisy_seed.h"
   6:FXunit1.cpp   **** //#include "daisysp.h"
   7:FXunit1.cpp   **** 
   8:FXunit1.cpp   **** constexpr int SAMPLE_RATE{48000};
   9:FXunit1.cpp   **** 
  10:FXunit1.cpp   **** // define hardware
  11:FXunit1.cpp   **** daisy::DaisySeed hw{};
  12:FXunit1.cpp   **** 
  13:FXunit1.cpp   **** // init effects
  14:FXunit1.cpp   **** Bypass bypass{};
  15:FXunit1.cpp   **** Basic_Overdrive overdrive{};
ARM GAS  /tmp/ccOjaarx.s 			page 11


  16:FXunit1.cpp   **** Basic_Delay<SAMPLE_RATE> delay{};
  17:FXunit1.cpp   **** // create array to hold all effects
  18:FXunit1.cpp   **** constexpr int EFFECT_COUNT{3};
  19:FXunit1.cpp   **** Effect* effect_array[EFFECT_COUNT]{&bypass,&overdrive,&delay};
  20:FXunit1.cpp   **** Effect* current_effect{effect_array[0]};
  21:FXunit1.cpp   **** 
  22:FXunit1.cpp   **** void AudioCallback(daisy::AudioHandle::InterleavingInputBuffer in, daisy::AudioHandle::Interleaving
  23:FXunit1.cpp   **** {
 172              		.loc 8 23 1 is_stmt 1 view -0
 173              		.cfi_startproc
 174              		@ args = 0, pretend = 0, frame = 0
 175              		@ frame_needed = 0, uses_anonymous_args = 0
  24:FXunit1.cpp   ****     // currently only in mono
  25:FXunit1.cpp   ****     for (size_t i = 0; i < size; i+=2)
 176              		.loc 8 25 5 view .LVU25
  23:FXunit1.cpp   ****     // currently only in mono
 177              		.loc 8 23 1 is_stmt 0 view .LVU26
 178 0000 F8B5     		push	{r3, r4, r5, r6, r7, lr}
 179              		.cfi_def_cfa_offset 24
 180              		.cfi_offset 3, -24
 181              		.cfi_offset 4, -20
 182              		.cfi_offset 5, -16
 183              		.cfi_offset 6, -12
 184              		.cfi_offset 7, -8
 185              		.cfi_offset 14, -4
  23:FXunit1.cpp   ****     // currently only in mono
 186              		.loc 8 23 1 view .LVU27
 187 0002 1746     		mov	r7, r2
 188 0004 0546     		mov	r5, r0
 189 0006 0C46     		mov	r4, r1
 190              	.LBB410:
 191              		.loc 8 25 17 view .LVU28
 192 0008 0026     		movs	r6, #0
 193              	.LVL6:
 194              	.L8:
 195              		.loc 8 25 26 is_stmt 1 discriminator 3 view .LVU29
 196 000a BE42     		cmp	r6, r7
 197 000c 05F10805 		add	r5, r5, #8
 198 0010 04F10804 		add	r4, r4, #8
 199 0014 0CD2     		bcs	.L6
 200              	.LBB411:
  26:FXunit1.cpp   ****     {
  27:FXunit1.cpp   ****         float sig_out{current_effect->Process(in[i])};
 201              		.loc 8 27 9 discriminator 2 view .LVU30
 202              		.loc 8 27 46 is_stmt 0 discriminator 2 view .LVU31
 203 0016 074B     		ldr	r3, .L9
 204              	.LBE411:
  25:FXunit1.cpp   ****     {
 205              		.loc 8 25 35 discriminator 2 view .LVU32
 206 0018 0236     		adds	r6, r6, #2
 207              	.LVL7:
 208              	.LBB412:
 209              		.loc 8 27 46 discriminator 2 view .LVU33
 210 001a 15ED020A 		vldr.32	s0, [r5, #-8]
 211 001e 1868     		ldr	r0, [r3]
 212              		.loc 8 27 52 discriminator 2 view .LVU34
 213 0020 0368     		ldr	r3, [r0]
ARM GAS  /tmp/ccOjaarx.s 			page 12


 214              		.loc 8 27 46 discriminator 2 view .LVU35
 215 0022 5B68     		ldr	r3, [r3, #4]
 216 0024 9847     		blx	r3
 217              	.LVL8:
  28:FXunit1.cpp   ****         out[i] = sig_out;
 218              		.loc 8 28 9 is_stmt 1 discriminator 2 view .LVU36
 219              		.loc 8 28 16 is_stmt 0 discriminator 2 view .LVU37
 220 0026 04ED020A 		vstr.32	s0, [r4, #-8]
  29:FXunit1.cpp   ****         out[i+1] = sig_out;
 221              		.loc 8 29 9 is_stmt 1 discriminator 2 view .LVU38
 222              		.loc 8 29 18 is_stmt 0 discriminator 2 view .LVU39
 223 002a 04ED010A 		vstr.32	s0, [r4, #-4]
 224              	.LBE412:
  25:FXunit1.cpp   ****     {
 225              		.loc 8 25 5 is_stmt 1 discriminator 2 view .LVU40
 226              	.LVL9:
  25:FXunit1.cpp   ****     {
 227              		.loc 8 25 5 is_stmt 0 discriminator 2 view .LVU41
 228 002e ECE7     		b	.L8
 229              	.LVL10:
 230              	.L6:
  25:FXunit1.cpp   ****     {
 231              		.loc 8 25 5 discriminator 2 view .LVU42
 232              	.LBE410:
  30:FXunit1.cpp   ****     }
  31:FXunit1.cpp   **** }
 233              		.loc 8 31 1 view .LVU43
 234 0030 F8BD     		pop	{r3, r4, r5, r6, r7, pc}
 235              	.LVL11:
 236              	.L10:
 237              		.loc 8 31 1 view .LVU44
 238 0032 00BF     		.align	2
 239              	.L9:
 240 0034 00000000 		.word	.LANCHOR0
 241              		.cfi_endproc
 242              	.LFE4714:
 244              		.section	.text._ZN11Basic_DelayILj48000EE7ProcessEf,"axG",%progbits,_ZN11Basic_DelayILj48000EE7Pro
 245              		.align	1
 246              		.weak	_ZN11Basic_DelayILj48000EE7ProcessEf
 247              		.syntax unified
 248              		.thumb
 249              		.thumb_func
 250              		.fpu fpv5-d16
 252              	_ZN11Basic_DelayILj48000EE7ProcessEf:
 253              	.LVL12:
 254              	.LFB5299:
 255              		.file 9 "Basic_Delay.h"
   1:Basic_Delay.h **** #pragma once
   2:Basic_Delay.h **** 
   3:Basic_Delay.h **** #include "Effect.h"
   4:Basic_Delay.h **** #include "daisysp.h"
   5:Basic_Delay.h **** 
   6:Basic_Delay.h **** template<size_t max_size>
   7:Basic_Delay.h **** class Basic_Delay : public Effect
   8:Basic_Delay.h **** {
   9:Basic_Delay.h **** public:
  10:Basic_Delay.h ****     Basic_Delay(): Effect("Delay",2), m_feedback{0.5f}, m_max_samples{max_size}, m_delay_time{stati
ARM GAS  /tmp/ccOjaarx.s 			page 13


  11:Basic_Delay.h ****     ~Basic_Delay() {}
  12:Basic_Delay.h **** 
  13:Basic_Delay.h ****     void Init(float sample_rate) {m_sample_rate = sample_rate; m_delay_line.Init();}
  14:Basic_Delay.h ****     float Process(float val)
 256              		.loc 9 14 11 is_stmt 1 view -0
 257              		.cfi_startproc
 258              		@ args = 0, pretend = 0, frame = 0
 259              		@ frame_needed = 0, uses_anonymous_args = 0
 260              	.LBB417:
 261              	.LBI417:
 262              		.file 10 "/home/luca/Desktop/DaisyExamples/DaisySP//Source/Utility/delayline.h"
   1:/home/luca/Desktop/DaisyExamples/DaisySP//Source/Utility/delayline.h **** /*
   2:/home/luca/Desktop/DaisyExamples/DaisySP//Source/Utility/delayline.h **** Copyright (c) 2020 Electrosmith, Corp
   3:/home/luca/Desktop/DaisyExamples/DaisySP//Source/Utility/delayline.h **** 
   4:/home/luca/Desktop/DaisyExamples/DaisySP//Source/Utility/delayline.h **** Use of this source code is governed by an MIT-style
   5:/home/luca/Desktop/DaisyExamples/DaisySP//Source/Utility/delayline.h **** license that can be found in the LICENSE file or at
   6:/home/luca/Desktop/DaisyExamples/DaisySP//Source/Utility/delayline.h **** https://opensource.org/licenses/MIT.
   7:/home/luca/Desktop/DaisyExamples/DaisySP//Source/Utility/delayline.h **** */
   8:/home/luca/Desktop/DaisyExamples/DaisySP//Source/Utility/delayline.h **** 
   9:/home/luca/Desktop/DaisyExamples/DaisySP//Source/Utility/delayline.h **** #pragma once
  10:/home/luca/Desktop/DaisyExamples/DaisySP//Source/Utility/delayline.h **** #ifndef DSY_DELAY_H
  11:/home/luca/Desktop/DaisyExamples/DaisySP//Source/Utility/delayline.h **** #define DSY_DELAY_H
  12:/home/luca/Desktop/DaisyExamples/DaisySP//Source/Utility/delayline.h **** #include <stdlib.h>
  13:/home/luca/Desktop/DaisyExamples/DaisySP//Source/Utility/delayline.h **** #include <stdint.h>
  14:/home/luca/Desktop/DaisyExamples/DaisySP//Source/Utility/delayline.h **** namespace daisysp
  15:/home/luca/Desktop/DaisyExamples/DaisySP//Source/Utility/delayline.h **** {
  16:/home/luca/Desktop/DaisyExamples/DaisySP//Source/Utility/delayline.h **** /** Simple Delay line.
  17:/home/luca/Desktop/DaisyExamples/DaisySP//Source/Utility/delayline.h **** November 2019
  18:/home/luca/Desktop/DaisyExamples/DaisySP//Source/Utility/delayline.h **** 
  19:/home/luca/Desktop/DaisyExamples/DaisySP//Source/Utility/delayline.h **** Converted to Template December 2019
  20:/home/luca/Desktop/DaisyExamples/DaisySP//Source/Utility/delayline.h **** 
  21:/home/luca/Desktop/DaisyExamples/DaisySP//Source/Utility/delayline.h **** declaration example: (1 second of floats)
  22:/home/luca/Desktop/DaisyExamples/DaisySP//Source/Utility/delayline.h **** 
  23:/home/luca/Desktop/DaisyExamples/DaisySP//Source/Utility/delayline.h **** DelayLine<float, SAMPLE_RATE> del;
  24:/home/luca/Desktop/DaisyExamples/DaisySP//Source/Utility/delayline.h **** 
  25:/home/luca/Desktop/DaisyExamples/DaisySP//Source/Utility/delayline.h **** By: shensley
  26:/home/luca/Desktop/DaisyExamples/DaisySP//Source/Utility/delayline.h **** */
  27:/home/luca/Desktop/DaisyExamples/DaisySP//Source/Utility/delayline.h **** template <typename T, size_t max_size>
  28:/home/luca/Desktop/DaisyExamples/DaisySP//Source/Utility/delayline.h **** class DelayLine
  29:/home/luca/Desktop/DaisyExamples/DaisySP//Source/Utility/delayline.h **** {
  30:/home/luca/Desktop/DaisyExamples/DaisySP//Source/Utility/delayline.h ****   public:
  31:/home/luca/Desktop/DaisyExamples/DaisySP//Source/Utility/delayline.h ****     DelayLine() {}
  32:/home/luca/Desktop/DaisyExamples/DaisySP//Source/Utility/delayline.h ****     ~DelayLine() {}
  33:/home/luca/Desktop/DaisyExamples/DaisySP//Source/Utility/delayline.h ****     /** initializes the delay line by clearing the values within, and setting delay to 1 sample.
  34:/home/luca/Desktop/DaisyExamples/DaisySP//Source/Utility/delayline.h ****     */
  35:/home/luca/Desktop/DaisyExamples/DaisySP//Source/Utility/delayline.h ****     void Init() { Reset(); }
  36:/home/luca/Desktop/DaisyExamples/DaisySP//Source/Utility/delayline.h ****     /** clears buffer, sets write ptr to 0, and delay to 1 sample.
  37:/home/luca/Desktop/DaisyExamples/DaisySP//Source/Utility/delayline.h ****     */
  38:/home/luca/Desktop/DaisyExamples/DaisySP//Source/Utility/delayline.h ****     void Reset()
  39:/home/luca/Desktop/DaisyExamples/DaisySP//Source/Utility/delayline.h ****     {
  40:/home/luca/Desktop/DaisyExamples/DaisySP//Source/Utility/delayline.h ****         for(size_t i = 0; i < max_size; i++)
  41:/home/luca/Desktop/DaisyExamples/DaisySP//Source/Utility/delayline.h ****         {
  42:/home/luca/Desktop/DaisyExamples/DaisySP//Source/Utility/delayline.h ****             line_[i] = T(0);
  43:/home/luca/Desktop/DaisyExamples/DaisySP//Source/Utility/delayline.h ****         }
  44:/home/luca/Desktop/DaisyExamples/DaisySP//Source/Utility/delayline.h ****         write_ptr_ = 0;
  45:/home/luca/Desktop/DaisyExamples/DaisySP//Source/Utility/delayline.h ****         delay_     = 1;
  46:/home/luca/Desktop/DaisyExamples/DaisySP//Source/Utility/delayline.h ****     }
ARM GAS  /tmp/ccOjaarx.s 			page 14


  47:/home/luca/Desktop/DaisyExamples/DaisySP//Source/Utility/delayline.h **** 
  48:/home/luca/Desktop/DaisyExamples/DaisySP//Source/Utility/delayline.h ****     /** sets the delay time in samples
  49:/home/luca/Desktop/DaisyExamples/DaisySP//Source/Utility/delayline.h ****         If a float is passed in, a fractional component will be calculated for interpolating the de
  50:/home/luca/Desktop/DaisyExamples/DaisySP//Source/Utility/delayline.h ****     */
  51:/home/luca/Desktop/DaisyExamples/DaisySP//Source/Utility/delayline.h ****     inline void SetDelay(size_t delay)
  52:/home/luca/Desktop/DaisyExamples/DaisySP//Source/Utility/delayline.h ****     {
  53:/home/luca/Desktop/DaisyExamples/DaisySP//Source/Utility/delayline.h ****         frac_  = 0.0f;
  54:/home/luca/Desktop/DaisyExamples/DaisySP//Source/Utility/delayline.h ****         delay_ = delay < max_size ? delay : max_size - 1;
  55:/home/luca/Desktop/DaisyExamples/DaisySP//Source/Utility/delayline.h ****     }
  56:/home/luca/Desktop/DaisyExamples/DaisySP//Source/Utility/delayline.h **** 
  57:/home/luca/Desktop/DaisyExamples/DaisySP//Source/Utility/delayline.h ****     /** sets the delay time in samples
  58:/home/luca/Desktop/DaisyExamples/DaisySP//Source/Utility/delayline.h ****         If a float is passed in, a fractional component will be calculated for interpolating the de
  59:/home/luca/Desktop/DaisyExamples/DaisySP//Source/Utility/delayline.h ****     */
  60:/home/luca/Desktop/DaisyExamples/DaisySP//Source/Utility/delayline.h ****     inline void SetDelay(float delay)
  61:/home/luca/Desktop/DaisyExamples/DaisySP//Source/Utility/delayline.h ****     {
  62:/home/luca/Desktop/DaisyExamples/DaisySP//Source/Utility/delayline.h ****         int32_t int_delay = static_cast<int32_t>(delay);
  63:/home/luca/Desktop/DaisyExamples/DaisySP//Source/Utility/delayline.h ****         frac_             = delay - static_cast<float>(int_delay);
  64:/home/luca/Desktop/DaisyExamples/DaisySP//Source/Utility/delayline.h ****         delay_ = static_cast<size_t>(int_delay) < max_size ? int_delay
  65:/home/luca/Desktop/DaisyExamples/DaisySP//Source/Utility/delayline.h ****                                                            : max_size - 1;
  66:/home/luca/Desktop/DaisyExamples/DaisySP//Source/Utility/delayline.h ****     }
  67:/home/luca/Desktop/DaisyExamples/DaisySP//Source/Utility/delayline.h **** 
  68:/home/luca/Desktop/DaisyExamples/DaisySP//Source/Utility/delayline.h ****     /** writes the sample of type T to the delay line, and advances the write ptr
  69:/home/luca/Desktop/DaisyExamples/DaisySP//Source/Utility/delayline.h ****     */
  70:/home/luca/Desktop/DaisyExamples/DaisySP//Source/Utility/delayline.h ****     inline void Write(const T sample)
  71:/home/luca/Desktop/DaisyExamples/DaisySP//Source/Utility/delayline.h ****     {
  72:/home/luca/Desktop/DaisyExamples/DaisySP//Source/Utility/delayline.h ****         line_[write_ptr_] = sample;
  73:/home/luca/Desktop/DaisyExamples/DaisySP//Source/Utility/delayline.h ****         write_ptr_        = (write_ptr_ - 1 + max_size) % max_size;
  74:/home/luca/Desktop/DaisyExamples/DaisySP//Source/Utility/delayline.h ****     }
  75:/home/luca/Desktop/DaisyExamples/DaisySP//Source/Utility/delayline.h **** 
  76:/home/luca/Desktop/DaisyExamples/DaisySP//Source/Utility/delayline.h ****     /** returns the next sample of type T in the delay line, interpolated if necessary.
  77:/home/luca/Desktop/DaisyExamples/DaisySP//Source/Utility/delayline.h ****     */
  78:/home/luca/Desktop/DaisyExamples/DaisySP//Source/Utility/delayline.h ****     inline const T Read() const
 263              		.loc 10 78 20 view .LVU46
 264              	.LBB418:
  79:/home/luca/Desktop/DaisyExamples/DaisySP//Source/Utility/delayline.h ****     {
  80:/home/luca/Desktop/DaisyExamples/DaisySP//Source/Utility/delayline.h ****         T a = line_[(write_ptr_ + delay_) % max_size];
 265              		.loc 10 80 33 is_stmt 0 view .LVU47
 266 0000 D0E91223 		ldrd	r2, r3, [r0, #72]
 267              		.loc 10 80 43 view .LVU48
 268 0004 4BF68031 		movw	r1, #48000
  81:/home/luca/Desktop/DaisyExamples/DaisySP//Source/Utility/delayline.h ****         T b = line_[(write_ptr_ + delay_ + 1) % max_size];
  82:/home/luca/Desktop/DaisyExamples/DaisySP//Source/Utility/delayline.h ****         return a + (b - a) * frac_;
 269              		.loc 10 82 30 view .LVU49
 270 0008 D0ED116A 		vldr.32	s13, [r0, #68]
  80:/home/luca/Desktop/DaisyExamples/DaisySP//Source/Utility/delayline.h ****         T b = line_[(write_ptr_ + delay_ + 1) % max_size];
 271              		.loc 10 80 33 view .LVU50
 272 000c 1344     		add	r3, r3, r2
 273              	.LBE418:
 274              	.LBE417:
 275              		.loc 9 14 11 view .LVU51
 276 000e 10B5     		push	{r4, lr}
 277              		.cfi_def_cfa_offset 8
 278              		.cfi_offset 4, -8
 279              		.cfi_offset 14, -4
 280              	.LBB421:
 281              	.LBB419:
  80:/home/luca/Desktop/DaisyExamples/DaisySP//Source/Utility/delayline.h ****         T b = line_[(write_ptr_ + delay_ + 1) % max_size];
ARM GAS  /tmp/ccOjaarx.s 			page 15


 282              		.loc 10 80 43 view .LVU52
 283 0010 B3FBF1F4 		udiv	r4, r3, r1
 284 0014 01FB1434 		mls	r4, r1, r4, r3
  81:/home/luca/Desktop/DaisyExamples/DaisySP//Source/Utility/delayline.h ****         T b = line_[(write_ptr_ + delay_ + 1) % max_size];
 285              		.loc 10 81 42 view .LVU53
 286 0018 0133     		adds	r3, r3, #1
  80:/home/luca/Desktop/DaisyExamples/DaisySP//Source/Utility/delayline.h ****         T b = line_[(write_ptr_ + delay_ + 1) % max_size];
 287              		.loc 10 80 11 view .LVU54
 288 001a 00EB8404 		add	r4, r0, r4, lsl #2
 289 001e D4ED147A 		vldr.32	s15, [r4, #80]
 290              	.LVL13:
  81:/home/luca/Desktop/DaisyExamples/DaisySP//Source/Utility/delayline.h ****         T b = line_[(write_ptr_ + delay_ + 1) % max_size];
 291              		.loc 10 81 47 view .LVU55
 292 0022 B3FBF1F4 		udiv	r4, r3, r1
 293 0026 01FB1433 		mls	r3, r1, r4, r3
  81:/home/luca/Desktop/DaisyExamples/DaisySP//Source/Utility/delayline.h ****         T b = line_[(write_ptr_ + delay_ + 1) % max_size];
 294              		.loc 10 81 11 view .LVU56
 295 002a 00EB8303 		add	r3, r0, r3, lsl #2
 296              		.loc 10 82 23 view .LVU57
 297 002e 93ED147A 		vldr.32	s14, [r3, #80]
 298              	.LBE419:
 299              	.LBE421:
  15:Basic_Delay.h ****     {
  16:Basic_Delay.h ****         const float next_samp{m_delay_line.Read()};
  17:Basic_Delay.h ****         m_delay_line.Write(val + next_samp*m_feedback);
 300              		.loc 9 17 44 view .LVU58
 301 0032 00F53B33 		add	r3, r0, #191488
 302              	.LBB422:
 303              	.LBB420:
 304              		.loc 10 82 23 view .LVU59
 305 0036 37EE677A 		vsub.f32	s14, s14, s15
 306              		.loc 10 82 30 view .LVU60
 307 003a E7EE267A 		vfma.f32	s15, s14, s13
 308              	.LVL14:
 309              		.loc 10 82 30 view .LVU61
 310              	.LBE420:
 311              	.LBE422:
 312              		.loc 9 17 27 view .LVU62
 313 003e D3ED946A 		vldr.32	s13, [r3, #592]
 314 0042 B0EE407A 		vmov.f32	s14, s0
 315              	.LBB423:
 316              	.LBB424:
  72:/home/luca/Desktop/DaisyExamples/DaisySP//Source/Utility/delayline.h ****         write_ptr_        = (write_ptr_ - 1 + max_size) % max_size;
 317              		.loc 10 72 27 view .LVU63
 318 0046 00EB8203 		add	r3, r0, r2, lsl #2
 319              	.LBE424:
 320              	.LBE423:
 321              		.loc 9 17 27 view .LVU64
 322 004a A6EEA77A 		vfma.f32	s14, s13, s15
 323              	.LVL15:
 324              	.LBB429:
 325              	.LBI423:
  70:/home/luca/Desktop/DaisyExamples/DaisySP//Source/Utility/delayline.h ****     {
 326              		.loc 10 70 17 is_stmt 1 view .LVU65
 327              	.LBE429:
  18:Basic_Delay.h ****         return val*(1-m_mix) + next_samp*m_mix;
 328              		.loc 9 18 22 is_stmt 0 view .LVU66
ARM GAS  /tmp/ccOjaarx.s 			page 16


 329 004e F7EE006A 		vmov.f32	s13, #1.0e+0
 330              	.LBB430:
 331              	.LBB425:
  72:/home/luca/Desktop/DaisyExamples/DaisySP//Source/Utility/delayline.h ****         write_ptr_        = (write_ptr_ - 1 + max_size) % max_size;
 332              		.loc 10 72 27 view .LVU67
 333 0052 83ED147A 		vstr.32	s14, [r3, #80]
  73:/home/luca/Desktop/DaisyExamples/DaisySP//Source/Utility/delayline.h ****     }
 334              		.loc 10 73 45 view .LVU68
 335 0056 02F53B43 		add	r3, r2, #47872
 336              	.LBE425:
 337              	.LBE430:
 338              		.loc 9 18 23 view .LVU69
 339 005a 90ED107A 		vldr.32	s14, [r0, #64]
 340              	.LVL16:
 341              	.LBB431:
 342              	.LBB426:
  73:/home/luca/Desktop/DaisyExamples/DaisySP//Source/Utility/delayline.h ****     }
 343              		.loc 10 73 45 view .LVU70
 344 005e 7F33     		adds	r3, r3, #127
 345              	.LBE426:
 346              	.LBE431:
 347              		.loc 9 18 22 view .LVU71
 348 0060 76EEC76A 		vsub.f32	s13, s13, s14
 349              		.loc 9 18 41 view .LVU72
 350 0064 67EE277A 		vmul.f32	s15, s14, s15
 351              	.LVL17:
 352              	.LBB432:
 353              	.LBB427:
  73:/home/luca/Desktop/DaisyExamples/DaisySP//Source/Utility/delayline.h ****     }
 354              		.loc 10 73 57 view .LVU73
 355 0068 B3FBF1F2 		udiv	r2, r3, r1
 356              	.LVL18:
  73:/home/luca/Desktop/DaisyExamples/DaisySP//Source/Utility/delayline.h ****     }
 357              		.loc 10 73 57 view .LVU74
 358              	.LBE427:
 359              	.LBE432:
  19:Basic_Delay.h ****     }
 360              		.loc 9 19 5 view .LVU75
 361 006c E6EE807A 		vfma.f32	s15, s13, s0
 362              	.LBB433:
 363              	.LBB428:
  73:/home/luca/Desktop/DaisyExamples/DaisySP//Source/Utility/delayline.h ****     }
 364              		.loc 10 73 57 view .LVU76
 365 0070 01FB1233 		mls	r3, r1, r2, r3
  73:/home/luca/Desktop/DaisyExamples/DaisySP//Source/Utility/delayline.h ****     }
 366              		.loc 10 73 27 view .LVU77
 367 0074 8364     		str	r3, [r0, #72]
 368              	.LVL19:
  73:/home/luca/Desktop/DaisyExamples/DaisySP//Source/Utility/delayline.h ****     }
 369              		.loc 10 73 27 view .LVU78
 370              	.LBE428:
 371              	.LBE433:
 372              		.loc 9 19 5 view .LVU79
 373 0076 B0EE670A 		vmov.f32	s0, s15
 374              	.LVL20:
 375              		.loc 9 19 5 view .LVU80
 376 007a 10BD     		pop	{r4, pc}
ARM GAS  /tmp/ccOjaarx.s 			page 17


 377              		.cfi_endproc
 378              	.LFE5299:
 380              		.section	.rodata._ZN11Basic_DelayILj48000EE10CycleParamEv.str1.1,"aMS",%progbits,1
 381              	.LC0:
 382 0000 4D697800 		.ascii	"Mix\000"
 383              	.LC1:
 384 0004 44656C61 		.ascii	"DelayTime\000"
 384      7954696D 
 384      6500
 385              	.LC2:
 386 000e 3F00     		.ascii	"?\000"
 387              		.section	.text._ZN11Basic_DelayILj48000EE10CycleParamEv,"axG",%progbits,_ZN11Basic_DelayILj48000EE
 388              		.align	1
 389              		.weak	_ZN11Basic_DelayILj48000EE10CycleParamEv
 390              		.syntax unified
 391              		.thumb
 392              		.thumb_func
 393              		.fpu fpv5-d16
 395              	_ZN11Basic_DelayILj48000EE10CycleParamEv:
 396              	.LVL21:
 397              	.LFB5300:
  20:Basic_Delay.h **** 
  21:Basic_Delay.h ****     void CycleParam()
 398              		.loc 9 21 10 is_stmt 1 view -0
 399              		.cfi_startproc
 400              		@ args = 0, pretend = 0, frame = 0
 401              		@ frame_needed = 0, uses_anonymous_args = 0
 402              		@ link register save eliminated.
  22:Basic_Delay.h ****     {
  23:Basic_Delay.h ****         m_current_param = (m_current_param + 1) % m_param_count; if (m_current_param >= m_param_cou
 403              		.loc 9 23 44 is_stmt 0 view .LVU82
 404 0000 D0E90813 		ldrd	r1, r3, [r0, #32]
  21:Basic_Delay.h ****     {
 405              		.loc 9 21 10 view .LVU83
 406 0004 0246     		mov	r2, r0
 407              		.loc 9 23 44 view .LVU84
 408 0006 0133     		adds	r3, r3, #1
 409              		.loc 9 23 49 view .LVU85
 410 0008 93FBF1F0 		sdiv	r0, r3, r1
 411              	.LVL22:
 412              		.loc 9 23 49 view .LVU86
 413 000c 01FB1033 		mls	r3, r1, r0, r3
  24:Basic_Delay.h **** 
  25:Basic_Delay.h ****         switch (m_current_param)
  26:Basic_Delay.h ****         {
  27:Basic_Delay.h ****             case 0:
  28:Basic_Delay.h ****                 m_current_param_name = "Mix";
  29:Basic_Delay.h ****                 break;
  30:Basic_Delay.h ****             case 1:
  31:Basic_Delay.h ****                 m_current_param_name = "DelayTime";
 414              		.loc 9 31 38 view .LVU87
 415 0010 02F12800 		add	r0, r2, #40
  23:Basic_Delay.h **** 
 416              		.loc 9 23 66 view .LVU88
 417 0014 9942     		cmp	r1, r3
  23:Basic_Delay.h **** 
 418              		.loc 9 23 25 view .LVU89
ARM GAS  /tmp/ccOjaarx.s 			page 18


 419 0016 5362     		str	r3, [r2, #36]
  23:Basic_Delay.h **** 
 420              		.loc 9 23 66 view .LVU90
 421 0018 04DC     		bgt	.L13
  23:Basic_Delay.h **** 
 422              		.loc 9 23 120 discriminator 1 view .LVU91
 423 001a 0023     		movs	r3, #0
 424 001c 5362     		str	r3, [r2, #36]
 425              	.L14:
  28:Basic_Delay.h ****                 break;
 426              		.loc 9 28 38 view .LVU92
 427 001e 0549     		ldr	r1, .L22
 428              	.L21:
  32:Basic_Delay.h ****                 break;
  33:Basic_Delay.h ****             default:
  34:Basic_Delay.h ****                 m_current_param_name = "?";
 429              		.loc 9 34 38 view .LVU93
 430 0020 FFF7FEBF 		b	_ZNSt7__cxx1112basic_stringIcSt11char_traitsIcESaIcEEaSEPKc
 431              	.LVL23:
 432              	.L13:
  25:Basic_Delay.h ****         {
 433              		.loc 9 25 9 view .LVU94
 434 0024 002B     		cmp	r3, #0
 435 0026 FAD0     		beq	.L14
 436 0028 012B     		cmp	r3, #1
 437 002a 01D0     		beq	.L15
 438              		.loc 9 34 38 view .LVU95
 439 002c 0249     		ldr	r1, .L22+4
 440 002e F7E7     		b	.L21
 441              	.L15:
  31:Basic_Delay.h ****                 break;
 442              		.loc 9 31 38 view .LVU96
 443 0030 0249     		ldr	r1, .L22+8
 444 0032 F5E7     		b	.L21
 445              	.L23:
 446              		.align	2
 447              	.L22:
 448 0034 00000000 		.word	.LC0
 449 0038 0E000000 		.word	.LC2
 450 003c 04000000 		.word	.LC1
 451              		.cfi_endproc
 452              	.LFE5300:
 454              		.section	.text._ZN11Basic_DelayILj48000EE4InitEf,"axG",%progbits,_ZN11Basic_DelayILj48000EE4InitEf
 455              		.align	1
 456              		.weak	_ZN11Basic_DelayILj48000EE4InitEf
 457              		.syntax unified
 458              		.thumb
 459              		.thumb_func
 460              		.fpu fpv5-d16
 462              	_ZN11Basic_DelayILj48000EE4InitEf:
 463              	.LVL24:
 464              	.LFB5298:
  13:Basic_Delay.h ****     float Process(float val)
 465              		.loc 9 13 10 is_stmt 1 view -0
 466              		.cfi_startproc
 467              		@ args = 0, pretend = 0, frame = 0
 468              		@ frame_needed = 0, uses_anonymous_args = 0
ARM GAS  /tmp/ccOjaarx.s 			page 19


  13:Basic_Delay.h ****     float Process(float val)
 469              		.loc 9 13 10 is_stmt 0 view .LVU98
 470 0000 10B5     		push	{r4, lr}
 471              		.cfi_def_cfa_offset 8
 472              		.cfi_offset 4, -8
 473              		.cfi_offset 14, -4
 474              	.LBB439:
 475              	.LBB440:
 476              	.LBB441:
 477              	.LBB442:
  42:/home/luca/Desktop/DaisyExamples/DaisySP//Source/Utility/delayline.h ****         }
 478              		.loc 10 42 22 view .LVU99
 479 0002 064A     		ldr	r2, .L25
 480              	.LBE442:
 481              	.LBE441:
 482              	.LBE440:
 483              	.LBE439:
  13:Basic_Delay.h ****     float Process(float val)
 484              		.loc 9 13 10 view .LVU100
 485 0004 0446     		mov	r4, r0
  13:Basic_Delay.h ****     float Process(float val)
 486              		.loc 9 13 49 view .LVU101
 487 0006 80ED070A 		vstr.32	s0, [r0, #28]
 488              	.LVL25:
 489              	.LBB446:
 490              	.LBI439:
  35:/home/luca/Desktop/DaisyExamples/DaisySP//Source/Utility/delayline.h ****     /** clears buffer, sets write ptr to 0, and delay to 1 sample.
 491              		.loc 10 35 10 is_stmt 1 view .LVU102
 492              	.LBB445:
 493              	.LBI440:
  38:/home/luca/Desktop/DaisyExamples/DaisySP//Source/Utility/delayline.h ****     {
 494              		.loc 10 38 10 view .LVU103
 495              	.LBB444:
 496              	.LBB443:
  40:/home/luca/Desktop/DaisyExamples/DaisySP//Source/Utility/delayline.h ****         {
 497              		.loc 10 40 29 view .LVU104
  42:/home/luca/Desktop/DaisyExamples/DaisySP//Source/Utility/delayline.h ****         }
 498              		.loc 10 42 22 is_stmt 0 view .LVU105
 499 000a 0021     		movs	r1, #0
 500 000c 5030     		adds	r0, r0, #80
 501              	.LVL26:
  42:/home/luca/Desktop/DaisyExamples/DaisySP//Source/Utility/delayline.h ****         }
 502              		.loc 10 42 22 view .LVU106
 503 000e FFF7FEFF 		bl	memset
 504              	.LVL27:
  42:/home/luca/Desktop/DaisyExamples/DaisySP//Source/Utility/delayline.h ****         }
 505              		.loc 10 42 22 view .LVU107
 506              	.LBE443:
  45:/home/luca/Desktop/DaisyExamples/DaisySP//Source/Utility/delayline.h ****     }
 507              		.loc 10 45 20 view .LVU108
 508 0012 0022     		movs	r2, #0
 509 0014 0123     		movs	r3, #1
 510 0016 C4E91223 		strd	r2, r3, [r4, #72]
 511              	.LVL28:
  45:/home/luca/Desktop/DaisyExamples/DaisySP//Source/Utility/delayline.h ****     }
 512              		.loc 10 45 20 view .LVU109
 513              	.LBE444:
ARM GAS  /tmp/ccOjaarx.s 			page 20


 514              	.LBE445:
 515              	.LBE446:
  13:Basic_Delay.h ****     float Process(float val)
 516              		.loc 9 13 84 view .LVU110
 517 001a 10BD     		pop	{r4, pc}
 518              	.LVL29:
 519              	.L26:
  13:Basic_Delay.h ****     float Process(float val)
 520              		.loc 9 13 84 view .LVU111
 521              		.align	2
 522              	.L25:
 523 001c 00EE0200 		.word	192000
 524              		.cfi_endproc
 525              	.LFE5298:
 527              		.section	.text._ZN11Basic_DelayILj48000EE8SetParamEf,"axG",%progbits,_ZN11Basic_DelayILj48000EE8Se
 528              		.align	1
 529              		.weak	_ZN11Basic_DelayILj48000EE8SetParamEf
 530              		.syntax unified
 531              		.thumb
 532              		.thumb_func
 533              		.fpu fpv5-d16
 535              	_ZN11Basic_DelayILj48000EE8SetParamEf:
 536              	.LVL30:
 537              	.LFB5301:
  35:Basic_Delay.h ****         }
  36:Basic_Delay.h ****     }      
  37:Basic_Delay.h **** 
  38:Basic_Delay.h **** 
  39:Basic_Delay.h ****     float SetParam(float val)
 538              		.loc 9 39 11 is_stmt 1 view -0
 539              		.cfi_startproc
 540              		@ args = 0, pretend = 0, frame = 0
 541              		@ frame_needed = 0, uses_anonymous_args = 0
 542              		@ link register save eliminated.
  40:Basic_Delay.h ****     {
  41:Basic_Delay.h ****         switch (m_current_param)
 543              		.loc 9 41 17 is_stmt 0 view .LVU113
 544 0000 436A     		ldr	r3, [r0, #36]
 545              		.loc 9 41 9 view .LVU114
 546 0002 23B1     		cbz	r3, .L28
 547 0004 012B     		cmp	r3, #1
 548 0006 05D0     		beq	.L29
 549 0008 BFEE000A 		vmov.f32	s0, #-1.0e+0
 550              	.LVL31:
 551              		.loc 9 41 9 view .LVU115
 552 000c 7047     		bx	lr
 553              	.LVL32:
 554              	.L28:
  42:Basic_Delay.h ****         {
  43:Basic_Delay.h ****             case 0:
  44:Basic_Delay.h ****                 m_mix = val;
 555              		.loc 9 44 23 view .LVU116
 556 000e 80ED100A 		vstr.32	s0, [r0, #64]
  45:Basic_Delay.h ****                 return val;
 557              		.loc 9 45 24 view .LVU117
 558 0012 7047     		bx	lr
 559              	.L29:
ARM GAS  /tmp/ccOjaarx.s 			page 21


 560              	.LVL33:
 561              	.LBB451:
 562              	.LBI451:
  39:Basic_Delay.h ****     {
 563              		.loc 9 39 11 is_stmt 1 view .LVU118
 564              	.LBB452:
  46:Basic_Delay.h ****             case 1:
  47:Basic_Delay.h ****                 m_delay_time = {(static_cast<float>(m_max_samples) * val)};
 565              		.loc 9 47 53 is_stmt 0 view .LVU119
 566 0014 00F53833 		add	r3, r0, #188416
 567              		.loc 9 47 34 view .LVU120
 568 0018 D3F8542E 		ldr	r2, [r3, #3668]
 569              		.loc 9 47 30 view .LVU121
 570 001c 03F65863 		addw	r3, r3, #3672
 571              		.loc 9 47 34 view .LVU122
 572 0020 07EE902A 		vmov	s15, r2	@ int
 573 0024 F8EEE77A 		vcvt.f32.s32	s15, s15
 574              		.loc 9 47 68 view .LVU123
 575 0028 67EE807A 		vmul.f32	s15, s15, s0
 576              	.LBB453:
 577              	.LBB454:
  62:/home/luca/Desktop/DaisyExamples/DaisySP//Source/Utility/delayline.h ****         frac_             = delay - static_cast<float>(int_delay);
 578              		.loc 10 62 17 view .LVU124
 579 002c BDEEE77A 		vcvt.s32.f32	s14, s15
 580              	.LBE454:
 581              	.LBE453:
 582              		.loc 9 47 30 view .LVU125
 583 0030 C3ED007A 		vstr.32	s15, [r3]
 584              	.LVL34:
 585              	.LBB456:
 586              	.LBI453:
  60:/home/luca/Desktop/DaisyExamples/DaisySP//Source/Utility/delayline.h ****     {
 587              		.loc 10 60 17 is_stmt 1 view .LVU126
 588              	.LBB455:
  64:/home/luca/Desktop/DaisyExamples/DaisySP//Source/Utility/delayline.h ****                                                            : max_size - 1;
 589              		.loc 10 64 16 is_stmt 0 view .LVU127
 590 0034 4BF67F33 		movw	r3, #47999
  63:/home/luca/Desktop/DaisyExamples/DaisySP//Source/Utility/delayline.h ****         delay_ = static_cast<size_t>(int_delay) < max_size ? int_delay
 591              		.loc 10 63 37 view .LVU128
 592 0038 F8EEC76A 		vcvt.f32.s32	s13, s14
  64:/home/luca/Desktop/DaisyExamples/DaisySP//Source/Utility/delayline.h ****                                                            : max_size - 1;
 593              		.loc 10 64 16 view .LVU129
 594 003c 17EE102A 		vmov	r2, s14	@ int
 595 0040 9A42     		cmp	r2, r3
 596 0042 94BF     		ite	ls
 597 0044 C264     		strls	r2, [r0, #76]
 598 0046 C364     		strhi	r3, [r0, #76]
 599              	.LVL35:
  63:/home/luca/Desktop/DaisyExamples/DaisySP//Source/Utility/delayline.h ****         delay_ = static_cast<size_t>(int_delay) < max_size ? int_delay
 600              		.loc 10 63 35 view .LVU130
 601 0048 77EEE67A 		vsub.f32	s15, s15, s13
  63:/home/luca/Desktop/DaisyExamples/DaisySP//Source/Utility/delayline.h ****         delay_ = static_cast<size_t>(int_delay) < max_size ? int_delay
 602              		.loc 10 63 27 view .LVU131
 603 004c C0ED117A 		vstr.32	s15, [r0, #68]
 604              	.LBE455:
 605              	.LBE456:
 606              	.LBE452:
ARM GAS  /tmp/ccOjaarx.s 			page 22


 607              	.LBE451:
  48:Basic_Delay.h ****                 m_delay_line.SetDelay(m_delay_time);
  49:Basic_Delay.h ****                 return val;
  50:Basic_Delay.h ****             // return negative if error occurs and no valid param is selected
  51:Basic_Delay.h ****             default:
  52:Basic_Delay.h ****                 return -1.0f;
  53:Basic_Delay.h ****         }
  54:Basic_Delay.h ****     }
 608              		.loc 9 54 5 view .LVU132
 609 0050 7047     		bx	lr
 610              		.cfi_endproc
 611              	.LFE5301:
 613              		.section	.rodata._ZNSt7__cxx1112basic_stringIcSt11char_traitsIcESaIcEEC2EPKcRKS3_.isra.0.str1.1,"a
 614              	.LC3:
 615 0000 62617369 		.ascii	"basic_string::_M_construct null not valid\000"
 615      635F7374 
 615      72696E67 
 615      3A3A5F4D 
 615      5F636F6E 
 616              		.section	.text._ZNSt7__cxx1112basic_stringIcSt11char_traitsIcESaIcEEC2EPKcRKS3_.isra.0,"ax",%progb
 617              		.align	1
 618              		.syntax unified
 619              		.thumb
 620              		.thumb_func
 621              		.fpu fpv5-d16
 623              	_ZNSt7__cxx1112basic_stringIcSt11char_traitsIcESaIcEEC2EPKcRKS3_.isra.0:
 624              	.LVL36:
 625              	.LFB5316:
 626              		.file 11 "/home/luca/DaisySeedDeveloper/gcc-arm-none-eabi-10-2020-q4-major/arm-none-eabi/include/c
   1:/home/luca/DaisySeedDeveloper/gcc-arm-none-eabi-10-2020-q4-major/arm-none-eabi/include/c++/10.2.1/bits/basic_string.h **** // Components for manipulating sequences of characters -*- C++ -*-
   2:/home/luca/DaisySeedDeveloper/gcc-arm-none-eabi-10-2020-q4-major/arm-none-eabi/include/c++/10.2.1/bits/basic_string.h **** 
   3:/home/luca/DaisySeedDeveloper/gcc-arm-none-eabi-10-2020-q4-major/arm-none-eabi/include/c++/10.2.1/bits/basic_string.h **** // Copyright (C) 1997-2020 Free Software Foundation, Inc.
   4:/home/luca/DaisySeedDeveloper/gcc-arm-none-eabi-10-2020-q4-major/arm-none-eabi/include/c++/10.2.1/bits/basic_string.h **** //
   5:/home/luca/DaisySeedDeveloper/gcc-arm-none-eabi-10-2020-q4-major/arm-none-eabi/include/c++/10.2.1/bits/basic_string.h **** // This file is part of the GNU ISO C++ Library.  This library is free
   6:/home/luca/DaisySeedDeveloper/gcc-arm-none-eabi-10-2020-q4-major/arm-none-eabi/include/c++/10.2.1/bits/basic_string.h **** // software; you can redistribute it and/or modify it under the
   7:/home/luca/DaisySeedDeveloper/gcc-arm-none-eabi-10-2020-q4-major/arm-none-eabi/include/c++/10.2.1/bits/basic_string.h **** // terms of the GNU General Public License as published by the
   8:/home/luca/DaisySeedDeveloper/gcc-arm-none-eabi-10-2020-q4-major/arm-none-eabi/include/c++/10.2.1/bits/basic_string.h **** // Free Software Foundation; either version 3, or (at your option)
   9:/home/luca/DaisySeedDeveloper/gcc-arm-none-eabi-10-2020-q4-major/arm-none-eabi/include/c++/10.2.1/bits/basic_string.h **** // any later version.
  10:/home/luca/DaisySeedDeveloper/gcc-arm-none-eabi-10-2020-q4-major/arm-none-eabi/include/c++/10.2.1/bits/basic_string.h **** 
  11:/home/luca/DaisySeedDeveloper/gcc-arm-none-eabi-10-2020-q4-major/arm-none-eabi/include/c++/10.2.1/bits/basic_string.h **** // This library is distributed in the hope that it will be useful,
  12:/home/luca/DaisySeedDeveloper/gcc-arm-none-eabi-10-2020-q4-major/arm-none-eabi/include/c++/10.2.1/bits/basic_string.h **** // but WITHOUT ANY WARRANTY; without even the implied warranty of
  13:/home/luca/DaisySeedDeveloper/gcc-arm-none-eabi-10-2020-q4-major/arm-none-eabi/include/c++/10.2.1/bits/basic_string.h **** // MERCHANTABILITY or FITNESS FOR A PARTICULAR PURPOSE.  See the
  14:/home/luca/DaisySeedDeveloper/gcc-arm-none-eabi-10-2020-q4-major/arm-none-eabi/include/c++/10.2.1/bits/basic_string.h **** // GNU General Public License for more details.
  15:/home/luca/DaisySeedDeveloper/gcc-arm-none-eabi-10-2020-q4-major/arm-none-eabi/include/c++/10.2.1/bits/basic_string.h **** 
  16:/home/luca/DaisySeedDeveloper/gcc-arm-none-eabi-10-2020-q4-major/arm-none-eabi/include/c++/10.2.1/bits/basic_string.h **** // Under Section 7 of GPL version 3, you are granted additional
  17:/home/luca/DaisySeedDeveloper/gcc-arm-none-eabi-10-2020-q4-major/arm-none-eabi/include/c++/10.2.1/bits/basic_string.h **** // permissions described in the GCC Runtime Library Exception, version
  18:/home/luca/DaisySeedDeveloper/gcc-arm-none-eabi-10-2020-q4-major/arm-none-eabi/include/c++/10.2.1/bits/basic_string.h **** // 3.1, as published by the Free Software Foundation.
  19:/home/luca/DaisySeedDeveloper/gcc-arm-none-eabi-10-2020-q4-major/arm-none-eabi/include/c++/10.2.1/bits/basic_string.h **** 
  20:/home/luca/DaisySeedDeveloper/gcc-arm-none-eabi-10-2020-q4-major/arm-none-eabi/include/c++/10.2.1/bits/basic_string.h **** // You should have received a copy of the GNU General Public License and
  21:/home/luca/DaisySeedDeveloper/gcc-arm-none-eabi-10-2020-q4-major/arm-none-eabi/include/c++/10.2.1/bits/basic_string.h **** // a copy of the GCC Runtime Library Exception along with this program;
  22:/home/luca/DaisySeedDeveloper/gcc-arm-none-eabi-10-2020-q4-major/arm-none-eabi/include/c++/10.2.1/bits/basic_string.h **** // see the files COPYING3 and COPYING.RUNTIME respectively.  If not, see
  23:/home/luca/DaisySeedDeveloper/gcc-arm-none-eabi-10-2020-q4-major/arm-none-eabi/include/c++/10.2.1/bits/basic_string.h **** // <http://www.gnu.org/licenses/>.
  24:/home/luca/DaisySeedDeveloper/gcc-arm-none-eabi-10-2020-q4-major/arm-none-eabi/include/c++/10.2.1/bits/basic_string.h **** 
  25:/home/luca/DaisySeedDeveloper/gcc-arm-none-eabi-10-2020-q4-major/arm-none-eabi/include/c++/10.2.1/bits/basic_string.h **** /** @file bits/basic_string.h
  26:/home/luca/DaisySeedDeveloper/gcc-arm-none-eabi-10-2020-q4-major/arm-none-eabi/include/c++/10.2.1/bits/basic_string.h ****  *  This is an internal header file, included by other library headers.
  27:/home/luca/DaisySeedDeveloper/gcc-arm-none-eabi-10-2020-q4-major/arm-none-eabi/include/c++/10.2.1/bits/basic_string.h ****  *  Do not attempt to use it directly. @headername{string}
  28:/home/luca/DaisySeedDeveloper/gcc-arm-none-eabi-10-2020-q4-major/arm-none-eabi/include/c++/10.2.1/bits/basic_string.h ****  */
ARM GAS  /tmp/ccOjaarx.s 			page 23


  29:/home/luca/DaisySeedDeveloper/gcc-arm-none-eabi-10-2020-q4-major/arm-none-eabi/include/c++/10.2.1/bits/basic_string.h **** 
  30:/home/luca/DaisySeedDeveloper/gcc-arm-none-eabi-10-2020-q4-major/arm-none-eabi/include/c++/10.2.1/bits/basic_string.h **** //
  31:/home/luca/DaisySeedDeveloper/gcc-arm-none-eabi-10-2020-q4-major/arm-none-eabi/include/c++/10.2.1/bits/basic_string.h **** // ISO C++ 14882: 21 Strings library
  32:/home/luca/DaisySeedDeveloper/gcc-arm-none-eabi-10-2020-q4-major/arm-none-eabi/include/c++/10.2.1/bits/basic_string.h **** //
  33:/home/luca/DaisySeedDeveloper/gcc-arm-none-eabi-10-2020-q4-major/arm-none-eabi/include/c++/10.2.1/bits/basic_string.h **** 
  34:/home/luca/DaisySeedDeveloper/gcc-arm-none-eabi-10-2020-q4-major/arm-none-eabi/include/c++/10.2.1/bits/basic_string.h **** #ifndef _BASIC_STRING_H
  35:/home/luca/DaisySeedDeveloper/gcc-arm-none-eabi-10-2020-q4-major/arm-none-eabi/include/c++/10.2.1/bits/basic_string.h **** #define _BASIC_STRING_H 1
  36:/home/luca/DaisySeedDeveloper/gcc-arm-none-eabi-10-2020-q4-major/arm-none-eabi/include/c++/10.2.1/bits/basic_string.h **** 
  37:/home/luca/DaisySeedDeveloper/gcc-arm-none-eabi-10-2020-q4-major/arm-none-eabi/include/c++/10.2.1/bits/basic_string.h **** #pragma GCC system_header
  38:/home/luca/DaisySeedDeveloper/gcc-arm-none-eabi-10-2020-q4-major/arm-none-eabi/include/c++/10.2.1/bits/basic_string.h **** 
  39:/home/luca/DaisySeedDeveloper/gcc-arm-none-eabi-10-2020-q4-major/arm-none-eabi/include/c++/10.2.1/bits/basic_string.h **** #include <ext/atomicity.h>
  40:/home/luca/DaisySeedDeveloper/gcc-arm-none-eabi-10-2020-q4-major/arm-none-eabi/include/c++/10.2.1/bits/basic_string.h **** #include <ext/alloc_traits.h>
  41:/home/luca/DaisySeedDeveloper/gcc-arm-none-eabi-10-2020-q4-major/arm-none-eabi/include/c++/10.2.1/bits/basic_string.h **** #include <debug/debug.h>
  42:/home/luca/DaisySeedDeveloper/gcc-arm-none-eabi-10-2020-q4-major/arm-none-eabi/include/c++/10.2.1/bits/basic_string.h **** 
  43:/home/luca/DaisySeedDeveloper/gcc-arm-none-eabi-10-2020-q4-major/arm-none-eabi/include/c++/10.2.1/bits/basic_string.h **** #if __cplusplus >= 201103L
  44:/home/luca/DaisySeedDeveloper/gcc-arm-none-eabi-10-2020-q4-major/arm-none-eabi/include/c++/10.2.1/bits/basic_string.h **** #include <initializer_list>
  45:/home/luca/DaisySeedDeveloper/gcc-arm-none-eabi-10-2020-q4-major/arm-none-eabi/include/c++/10.2.1/bits/basic_string.h **** #endif
  46:/home/luca/DaisySeedDeveloper/gcc-arm-none-eabi-10-2020-q4-major/arm-none-eabi/include/c++/10.2.1/bits/basic_string.h **** 
  47:/home/luca/DaisySeedDeveloper/gcc-arm-none-eabi-10-2020-q4-major/arm-none-eabi/include/c++/10.2.1/bits/basic_string.h **** #if __cplusplus >= 201703L
  48:/home/luca/DaisySeedDeveloper/gcc-arm-none-eabi-10-2020-q4-major/arm-none-eabi/include/c++/10.2.1/bits/basic_string.h **** # include <string_view>
  49:/home/luca/DaisySeedDeveloper/gcc-arm-none-eabi-10-2020-q4-major/arm-none-eabi/include/c++/10.2.1/bits/basic_string.h **** #endif
  50:/home/luca/DaisySeedDeveloper/gcc-arm-none-eabi-10-2020-q4-major/arm-none-eabi/include/c++/10.2.1/bits/basic_string.h **** 
  51:/home/luca/DaisySeedDeveloper/gcc-arm-none-eabi-10-2020-q4-major/arm-none-eabi/include/c++/10.2.1/bits/basic_string.h **** 
  52:/home/luca/DaisySeedDeveloper/gcc-arm-none-eabi-10-2020-q4-major/arm-none-eabi/include/c++/10.2.1/bits/basic_string.h **** namespace std _GLIBCXX_VISIBILITY(default)
  53:/home/luca/DaisySeedDeveloper/gcc-arm-none-eabi-10-2020-q4-major/arm-none-eabi/include/c++/10.2.1/bits/basic_string.h **** {
  54:/home/luca/DaisySeedDeveloper/gcc-arm-none-eabi-10-2020-q4-major/arm-none-eabi/include/c++/10.2.1/bits/basic_string.h **** _GLIBCXX_BEGIN_NAMESPACE_VERSION
  55:/home/luca/DaisySeedDeveloper/gcc-arm-none-eabi-10-2020-q4-major/arm-none-eabi/include/c++/10.2.1/bits/basic_string.h **** 
  56:/home/luca/DaisySeedDeveloper/gcc-arm-none-eabi-10-2020-q4-major/arm-none-eabi/include/c++/10.2.1/bits/basic_string.h **** #if _GLIBCXX_USE_CXX11_ABI
  57:/home/luca/DaisySeedDeveloper/gcc-arm-none-eabi-10-2020-q4-major/arm-none-eabi/include/c++/10.2.1/bits/basic_string.h **** _GLIBCXX_BEGIN_NAMESPACE_CXX11
  58:/home/luca/DaisySeedDeveloper/gcc-arm-none-eabi-10-2020-q4-major/arm-none-eabi/include/c++/10.2.1/bits/basic_string.h ****   /**
  59:/home/luca/DaisySeedDeveloper/gcc-arm-none-eabi-10-2020-q4-major/arm-none-eabi/include/c++/10.2.1/bits/basic_string.h ****    *  @class basic_string basic_string.h <string>
  60:/home/luca/DaisySeedDeveloper/gcc-arm-none-eabi-10-2020-q4-major/arm-none-eabi/include/c++/10.2.1/bits/basic_string.h ****    *  @brief  Managing sequences of characters and character-like objects.
  61:/home/luca/DaisySeedDeveloper/gcc-arm-none-eabi-10-2020-q4-major/arm-none-eabi/include/c++/10.2.1/bits/basic_string.h ****    *
  62:/home/luca/DaisySeedDeveloper/gcc-arm-none-eabi-10-2020-q4-major/arm-none-eabi/include/c++/10.2.1/bits/basic_string.h ****    *  @ingroup strings
  63:/home/luca/DaisySeedDeveloper/gcc-arm-none-eabi-10-2020-q4-major/arm-none-eabi/include/c++/10.2.1/bits/basic_string.h ****    *  @ingroup sequences
  64:/home/luca/DaisySeedDeveloper/gcc-arm-none-eabi-10-2020-q4-major/arm-none-eabi/include/c++/10.2.1/bits/basic_string.h ****    *
  65:/home/luca/DaisySeedDeveloper/gcc-arm-none-eabi-10-2020-q4-major/arm-none-eabi/include/c++/10.2.1/bits/basic_string.h ****    *  @tparam _CharT  Type of character
  66:/home/luca/DaisySeedDeveloper/gcc-arm-none-eabi-10-2020-q4-major/arm-none-eabi/include/c++/10.2.1/bits/basic_string.h ****    *  @tparam _Traits  Traits for character type, defaults to
  67:/home/luca/DaisySeedDeveloper/gcc-arm-none-eabi-10-2020-q4-major/arm-none-eabi/include/c++/10.2.1/bits/basic_string.h ****    *                   char_traits<_CharT>.
  68:/home/luca/DaisySeedDeveloper/gcc-arm-none-eabi-10-2020-q4-major/arm-none-eabi/include/c++/10.2.1/bits/basic_string.h ****    *  @tparam _Alloc  Allocator type, defaults to allocator<_CharT>.
  69:/home/luca/DaisySeedDeveloper/gcc-arm-none-eabi-10-2020-q4-major/arm-none-eabi/include/c++/10.2.1/bits/basic_string.h ****    *
  70:/home/luca/DaisySeedDeveloper/gcc-arm-none-eabi-10-2020-q4-major/arm-none-eabi/include/c++/10.2.1/bits/basic_string.h ****    *  Meets the requirements of a <a href="tables.html#65">container</a>, a
  71:/home/luca/DaisySeedDeveloper/gcc-arm-none-eabi-10-2020-q4-major/arm-none-eabi/include/c++/10.2.1/bits/basic_string.h ****    *  <a href="tables.html#66">reversible container</a>, and a
  72:/home/luca/DaisySeedDeveloper/gcc-arm-none-eabi-10-2020-q4-major/arm-none-eabi/include/c++/10.2.1/bits/basic_string.h ****    *  <a href="tables.html#67">sequence</a>.  Of the
  73:/home/luca/DaisySeedDeveloper/gcc-arm-none-eabi-10-2020-q4-major/arm-none-eabi/include/c++/10.2.1/bits/basic_string.h ****    *  <a href="tables.html#68">optional sequence requirements</a>, only
  74:/home/luca/DaisySeedDeveloper/gcc-arm-none-eabi-10-2020-q4-major/arm-none-eabi/include/c++/10.2.1/bits/basic_string.h ****    *  @c push_back, @c at, and @c %array access are supported.
  75:/home/luca/DaisySeedDeveloper/gcc-arm-none-eabi-10-2020-q4-major/arm-none-eabi/include/c++/10.2.1/bits/basic_string.h ****    */
  76:/home/luca/DaisySeedDeveloper/gcc-arm-none-eabi-10-2020-q4-major/arm-none-eabi/include/c++/10.2.1/bits/basic_string.h ****   template<typename _CharT, typename _Traits, typename _Alloc>
  77:/home/luca/DaisySeedDeveloper/gcc-arm-none-eabi-10-2020-q4-major/arm-none-eabi/include/c++/10.2.1/bits/basic_string.h ****     class basic_string
  78:/home/luca/DaisySeedDeveloper/gcc-arm-none-eabi-10-2020-q4-major/arm-none-eabi/include/c++/10.2.1/bits/basic_string.h ****     {
  79:/home/luca/DaisySeedDeveloper/gcc-arm-none-eabi-10-2020-q4-major/arm-none-eabi/include/c++/10.2.1/bits/basic_string.h ****       typedef typename __gnu_cxx::__alloc_traits<_Alloc>::template
  80:/home/luca/DaisySeedDeveloper/gcc-arm-none-eabi-10-2020-q4-major/arm-none-eabi/include/c++/10.2.1/bits/basic_string.h **** 	rebind<_CharT>::other _Char_alloc_type;
  81:/home/luca/DaisySeedDeveloper/gcc-arm-none-eabi-10-2020-q4-major/arm-none-eabi/include/c++/10.2.1/bits/basic_string.h ****       typedef __gnu_cxx::__alloc_traits<_Char_alloc_type> _Alloc_traits;
  82:/home/luca/DaisySeedDeveloper/gcc-arm-none-eabi-10-2020-q4-major/arm-none-eabi/include/c++/10.2.1/bits/basic_string.h **** 
  83:/home/luca/DaisySeedDeveloper/gcc-arm-none-eabi-10-2020-q4-major/arm-none-eabi/include/c++/10.2.1/bits/basic_string.h ****       // Types:
  84:/home/luca/DaisySeedDeveloper/gcc-arm-none-eabi-10-2020-q4-major/arm-none-eabi/include/c++/10.2.1/bits/basic_string.h ****     public:
  85:/home/luca/DaisySeedDeveloper/gcc-arm-none-eabi-10-2020-q4-major/arm-none-eabi/include/c++/10.2.1/bits/basic_string.h ****       typedef _Traits					traits_type;
ARM GAS  /tmp/ccOjaarx.s 			page 24


  86:/home/luca/DaisySeedDeveloper/gcc-arm-none-eabi-10-2020-q4-major/arm-none-eabi/include/c++/10.2.1/bits/basic_string.h ****       typedef typename _Traits::char_type		value_type;
  87:/home/luca/DaisySeedDeveloper/gcc-arm-none-eabi-10-2020-q4-major/arm-none-eabi/include/c++/10.2.1/bits/basic_string.h ****       typedef _Char_alloc_type				allocator_type;
  88:/home/luca/DaisySeedDeveloper/gcc-arm-none-eabi-10-2020-q4-major/arm-none-eabi/include/c++/10.2.1/bits/basic_string.h ****       typedef typename _Alloc_traits::size_type		size_type;
  89:/home/luca/DaisySeedDeveloper/gcc-arm-none-eabi-10-2020-q4-major/arm-none-eabi/include/c++/10.2.1/bits/basic_string.h ****       typedef typename _Alloc_traits::difference_type	difference_type;
  90:/home/luca/DaisySeedDeveloper/gcc-arm-none-eabi-10-2020-q4-major/arm-none-eabi/include/c++/10.2.1/bits/basic_string.h ****       typedef typename _Alloc_traits::reference		reference;
  91:/home/luca/DaisySeedDeveloper/gcc-arm-none-eabi-10-2020-q4-major/arm-none-eabi/include/c++/10.2.1/bits/basic_string.h ****       typedef typename _Alloc_traits::const_reference	const_reference;
  92:/home/luca/DaisySeedDeveloper/gcc-arm-none-eabi-10-2020-q4-major/arm-none-eabi/include/c++/10.2.1/bits/basic_string.h ****       typedef typename _Alloc_traits::pointer		pointer;
  93:/home/luca/DaisySeedDeveloper/gcc-arm-none-eabi-10-2020-q4-major/arm-none-eabi/include/c++/10.2.1/bits/basic_string.h ****       typedef typename _Alloc_traits::const_pointer	const_pointer;
  94:/home/luca/DaisySeedDeveloper/gcc-arm-none-eabi-10-2020-q4-major/arm-none-eabi/include/c++/10.2.1/bits/basic_string.h ****       typedef __gnu_cxx::__normal_iterator<pointer, basic_string>  iterator;
  95:/home/luca/DaisySeedDeveloper/gcc-arm-none-eabi-10-2020-q4-major/arm-none-eabi/include/c++/10.2.1/bits/basic_string.h ****       typedef __gnu_cxx::__normal_iterator<const_pointer, basic_string>
  96:/home/luca/DaisySeedDeveloper/gcc-arm-none-eabi-10-2020-q4-major/arm-none-eabi/include/c++/10.2.1/bits/basic_string.h **** 							const_iterator;
  97:/home/luca/DaisySeedDeveloper/gcc-arm-none-eabi-10-2020-q4-major/arm-none-eabi/include/c++/10.2.1/bits/basic_string.h ****       typedef std::reverse_iterator<const_iterator>	const_reverse_iterator;
  98:/home/luca/DaisySeedDeveloper/gcc-arm-none-eabi-10-2020-q4-major/arm-none-eabi/include/c++/10.2.1/bits/basic_string.h ****       typedef std::reverse_iterator<iterator>		reverse_iterator;
  99:/home/luca/DaisySeedDeveloper/gcc-arm-none-eabi-10-2020-q4-major/arm-none-eabi/include/c++/10.2.1/bits/basic_string.h **** 
 100:/home/luca/DaisySeedDeveloper/gcc-arm-none-eabi-10-2020-q4-major/arm-none-eabi/include/c++/10.2.1/bits/basic_string.h ****       ///  Value returned by various member functions when they fail.
 101:/home/luca/DaisySeedDeveloper/gcc-arm-none-eabi-10-2020-q4-major/arm-none-eabi/include/c++/10.2.1/bits/basic_string.h ****       static const size_type	npos = static_cast<size_type>(-1);
 102:/home/luca/DaisySeedDeveloper/gcc-arm-none-eabi-10-2020-q4-major/arm-none-eabi/include/c++/10.2.1/bits/basic_string.h **** 
 103:/home/luca/DaisySeedDeveloper/gcc-arm-none-eabi-10-2020-q4-major/arm-none-eabi/include/c++/10.2.1/bits/basic_string.h ****     protected:
 104:/home/luca/DaisySeedDeveloper/gcc-arm-none-eabi-10-2020-q4-major/arm-none-eabi/include/c++/10.2.1/bits/basic_string.h ****       // type used for positions in insert, erase etc.
 105:/home/luca/DaisySeedDeveloper/gcc-arm-none-eabi-10-2020-q4-major/arm-none-eabi/include/c++/10.2.1/bits/basic_string.h **** #if __cplusplus < 201103L
 106:/home/luca/DaisySeedDeveloper/gcc-arm-none-eabi-10-2020-q4-major/arm-none-eabi/include/c++/10.2.1/bits/basic_string.h ****       typedef iterator __const_iterator;
 107:/home/luca/DaisySeedDeveloper/gcc-arm-none-eabi-10-2020-q4-major/arm-none-eabi/include/c++/10.2.1/bits/basic_string.h **** #else
 108:/home/luca/DaisySeedDeveloper/gcc-arm-none-eabi-10-2020-q4-major/arm-none-eabi/include/c++/10.2.1/bits/basic_string.h ****       typedef const_iterator __const_iterator;
 109:/home/luca/DaisySeedDeveloper/gcc-arm-none-eabi-10-2020-q4-major/arm-none-eabi/include/c++/10.2.1/bits/basic_string.h **** #endif
 110:/home/luca/DaisySeedDeveloper/gcc-arm-none-eabi-10-2020-q4-major/arm-none-eabi/include/c++/10.2.1/bits/basic_string.h **** 
 111:/home/luca/DaisySeedDeveloper/gcc-arm-none-eabi-10-2020-q4-major/arm-none-eabi/include/c++/10.2.1/bits/basic_string.h ****     private:
 112:/home/luca/DaisySeedDeveloper/gcc-arm-none-eabi-10-2020-q4-major/arm-none-eabi/include/c++/10.2.1/bits/basic_string.h **** #if __cplusplus >= 201703L
 113:/home/luca/DaisySeedDeveloper/gcc-arm-none-eabi-10-2020-q4-major/arm-none-eabi/include/c++/10.2.1/bits/basic_string.h ****       // A helper type for avoiding boiler-plate.
 114:/home/luca/DaisySeedDeveloper/gcc-arm-none-eabi-10-2020-q4-major/arm-none-eabi/include/c++/10.2.1/bits/basic_string.h ****       typedef basic_string_view<_CharT, _Traits> __sv_type;
 115:/home/luca/DaisySeedDeveloper/gcc-arm-none-eabi-10-2020-q4-major/arm-none-eabi/include/c++/10.2.1/bits/basic_string.h **** 
 116:/home/luca/DaisySeedDeveloper/gcc-arm-none-eabi-10-2020-q4-major/arm-none-eabi/include/c++/10.2.1/bits/basic_string.h ****       template<typename _Tp, typename _Res>
 117:/home/luca/DaisySeedDeveloper/gcc-arm-none-eabi-10-2020-q4-major/arm-none-eabi/include/c++/10.2.1/bits/basic_string.h **** 	using _If_sv = enable_if_t<
 118:/home/luca/DaisySeedDeveloper/gcc-arm-none-eabi-10-2020-q4-major/arm-none-eabi/include/c++/10.2.1/bits/basic_string.h **** 	  __and_<is_convertible<const _Tp&, __sv_type>,
 119:/home/luca/DaisySeedDeveloper/gcc-arm-none-eabi-10-2020-q4-major/arm-none-eabi/include/c++/10.2.1/bits/basic_string.h **** 		 __not_<is_convertible<const _Tp*, const basic_string*>>,
 120:/home/luca/DaisySeedDeveloper/gcc-arm-none-eabi-10-2020-q4-major/arm-none-eabi/include/c++/10.2.1/bits/basic_string.h **** 		 __not_<is_convertible<const _Tp&, const _CharT*>>>::value,
 121:/home/luca/DaisySeedDeveloper/gcc-arm-none-eabi-10-2020-q4-major/arm-none-eabi/include/c++/10.2.1/bits/basic_string.h **** 	  _Res>;
 122:/home/luca/DaisySeedDeveloper/gcc-arm-none-eabi-10-2020-q4-major/arm-none-eabi/include/c++/10.2.1/bits/basic_string.h **** 
 123:/home/luca/DaisySeedDeveloper/gcc-arm-none-eabi-10-2020-q4-major/arm-none-eabi/include/c++/10.2.1/bits/basic_string.h ****       // Allows an implicit conversion to __sv_type.
 124:/home/luca/DaisySeedDeveloper/gcc-arm-none-eabi-10-2020-q4-major/arm-none-eabi/include/c++/10.2.1/bits/basic_string.h ****       static __sv_type
 125:/home/luca/DaisySeedDeveloper/gcc-arm-none-eabi-10-2020-q4-major/arm-none-eabi/include/c++/10.2.1/bits/basic_string.h ****       _S_to_string_view(__sv_type __svt) noexcept
 126:/home/luca/DaisySeedDeveloper/gcc-arm-none-eabi-10-2020-q4-major/arm-none-eabi/include/c++/10.2.1/bits/basic_string.h ****       { return __svt; }
 127:/home/luca/DaisySeedDeveloper/gcc-arm-none-eabi-10-2020-q4-major/arm-none-eabi/include/c++/10.2.1/bits/basic_string.h **** 
 128:/home/luca/DaisySeedDeveloper/gcc-arm-none-eabi-10-2020-q4-major/arm-none-eabi/include/c++/10.2.1/bits/basic_string.h ****       // Wraps a string_view by explicit conversion and thus
 129:/home/luca/DaisySeedDeveloper/gcc-arm-none-eabi-10-2020-q4-major/arm-none-eabi/include/c++/10.2.1/bits/basic_string.h ****       // allows to add an internal constructor that does not
 130:/home/luca/DaisySeedDeveloper/gcc-arm-none-eabi-10-2020-q4-major/arm-none-eabi/include/c++/10.2.1/bits/basic_string.h ****       // participate in overload resolution when a string_view
 131:/home/luca/DaisySeedDeveloper/gcc-arm-none-eabi-10-2020-q4-major/arm-none-eabi/include/c++/10.2.1/bits/basic_string.h ****       // is provided.
 132:/home/luca/DaisySeedDeveloper/gcc-arm-none-eabi-10-2020-q4-major/arm-none-eabi/include/c++/10.2.1/bits/basic_string.h ****       struct __sv_wrapper
 133:/home/luca/DaisySeedDeveloper/gcc-arm-none-eabi-10-2020-q4-major/arm-none-eabi/include/c++/10.2.1/bits/basic_string.h ****       {
 134:/home/luca/DaisySeedDeveloper/gcc-arm-none-eabi-10-2020-q4-major/arm-none-eabi/include/c++/10.2.1/bits/basic_string.h **** 	explicit __sv_wrapper(__sv_type __sv) noexcept : _M_sv(__sv) { }
 135:/home/luca/DaisySeedDeveloper/gcc-arm-none-eabi-10-2020-q4-major/arm-none-eabi/include/c++/10.2.1/bits/basic_string.h **** 	__sv_type _M_sv;
 136:/home/luca/DaisySeedDeveloper/gcc-arm-none-eabi-10-2020-q4-major/arm-none-eabi/include/c++/10.2.1/bits/basic_string.h ****       };
 137:/home/luca/DaisySeedDeveloper/gcc-arm-none-eabi-10-2020-q4-major/arm-none-eabi/include/c++/10.2.1/bits/basic_string.h **** 
 138:/home/luca/DaisySeedDeveloper/gcc-arm-none-eabi-10-2020-q4-major/arm-none-eabi/include/c++/10.2.1/bits/basic_string.h ****       /**
 139:/home/luca/DaisySeedDeveloper/gcc-arm-none-eabi-10-2020-q4-major/arm-none-eabi/include/c++/10.2.1/bits/basic_string.h ****        *  @brief  Only internally used: Construct string from a string view
 140:/home/luca/DaisySeedDeveloper/gcc-arm-none-eabi-10-2020-q4-major/arm-none-eabi/include/c++/10.2.1/bits/basic_string.h ****        *          wrapper.
 141:/home/luca/DaisySeedDeveloper/gcc-arm-none-eabi-10-2020-q4-major/arm-none-eabi/include/c++/10.2.1/bits/basic_string.h ****        *  @param  __svw  string view wrapper.
 142:/home/luca/DaisySeedDeveloper/gcc-arm-none-eabi-10-2020-q4-major/arm-none-eabi/include/c++/10.2.1/bits/basic_string.h ****        *  @param  __a  Allocator to use.
ARM GAS  /tmp/ccOjaarx.s 			page 25


 143:/home/luca/DaisySeedDeveloper/gcc-arm-none-eabi-10-2020-q4-major/arm-none-eabi/include/c++/10.2.1/bits/basic_string.h ****        */
 144:/home/luca/DaisySeedDeveloper/gcc-arm-none-eabi-10-2020-q4-major/arm-none-eabi/include/c++/10.2.1/bits/basic_string.h ****       explicit
 145:/home/luca/DaisySeedDeveloper/gcc-arm-none-eabi-10-2020-q4-major/arm-none-eabi/include/c++/10.2.1/bits/basic_string.h ****       basic_string(__sv_wrapper __svw, const _Alloc& __a)
 146:/home/luca/DaisySeedDeveloper/gcc-arm-none-eabi-10-2020-q4-major/arm-none-eabi/include/c++/10.2.1/bits/basic_string.h ****       : basic_string(__svw._M_sv.data(), __svw._M_sv.size(), __a) { }
 147:/home/luca/DaisySeedDeveloper/gcc-arm-none-eabi-10-2020-q4-major/arm-none-eabi/include/c++/10.2.1/bits/basic_string.h **** #endif
 148:/home/luca/DaisySeedDeveloper/gcc-arm-none-eabi-10-2020-q4-major/arm-none-eabi/include/c++/10.2.1/bits/basic_string.h **** 
 149:/home/luca/DaisySeedDeveloper/gcc-arm-none-eabi-10-2020-q4-major/arm-none-eabi/include/c++/10.2.1/bits/basic_string.h ****       // Use empty-base optimization: http://www.cantrip.org/emptyopt.html
 150:/home/luca/DaisySeedDeveloper/gcc-arm-none-eabi-10-2020-q4-major/arm-none-eabi/include/c++/10.2.1/bits/basic_string.h ****       struct _Alloc_hider : allocator_type // TODO check __is_final
 151:/home/luca/DaisySeedDeveloper/gcc-arm-none-eabi-10-2020-q4-major/arm-none-eabi/include/c++/10.2.1/bits/basic_string.h ****       {
 152:/home/luca/DaisySeedDeveloper/gcc-arm-none-eabi-10-2020-q4-major/arm-none-eabi/include/c++/10.2.1/bits/basic_string.h **** #if __cplusplus < 201103L
 153:/home/luca/DaisySeedDeveloper/gcc-arm-none-eabi-10-2020-q4-major/arm-none-eabi/include/c++/10.2.1/bits/basic_string.h **** 	_Alloc_hider(pointer __dat, const _Alloc& __a = _Alloc())
 154:/home/luca/DaisySeedDeveloper/gcc-arm-none-eabi-10-2020-q4-major/arm-none-eabi/include/c++/10.2.1/bits/basic_string.h **** 	: allocator_type(__a), _M_p(__dat) { }
 155:/home/luca/DaisySeedDeveloper/gcc-arm-none-eabi-10-2020-q4-major/arm-none-eabi/include/c++/10.2.1/bits/basic_string.h **** #else
 156:/home/luca/DaisySeedDeveloper/gcc-arm-none-eabi-10-2020-q4-major/arm-none-eabi/include/c++/10.2.1/bits/basic_string.h **** 	_Alloc_hider(pointer __dat, const _Alloc& __a)
 157:/home/luca/DaisySeedDeveloper/gcc-arm-none-eabi-10-2020-q4-major/arm-none-eabi/include/c++/10.2.1/bits/basic_string.h **** 	: allocator_type(__a), _M_p(__dat) { }
 158:/home/luca/DaisySeedDeveloper/gcc-arm-none-eabi-10-2020-q4-major/arm-none-eabi/include/c++/10.2.1/bits/basic_string.h **** 
 159:/home/luca/DaisySeedDeveloper/gcc-arm-none-eabi-10-2020-q4-major/arm-none-eabi/include/c++/10.2.1/bits/basic_string.h **** 	_Alloc_hider(pointer __dat, _Alloc&& __a = _Alloc())
 160:/home/luca/DaisySeedDeveloper/gcc-arm-none-eabi-10-2020-q4-major/arm-none-eabi/include/c++/10.2.1/bits/basic_string.h **** 	: allocator_type(std::move(__a)), _M_p(__dat) { }
 161:/home/luca/DaisySeedDeveloper/gcc-arm-none-eabi-10-2020-q4-major/arm-none-eabi/include/c++/10.2.1/bits/basic_string.h **** #endif
 162:/home/luca/DaisySeedDeveloper/gcc-arm-none-eabi-10-2020-q4-major/arm-none-eabi/include/c++/10.2.1/bits/basic_string.h **** 
 163:/home/luca/DaisySeedDeveloper/gcc-arm-none-eabi-10-2020-q4-major/arm-none-eabi/include/c++/10.2.1/bits/basic_string.h **** 	pointer _M_p; // The actual data.
 164:/home/luca/DaisySeedDeveloper/gcc-arm-none-eabi-10-2020-q4-major/arm-none-eabi/include/c++/10.2.1/bits/basic_string.h ****       };
 165:/home/luca/DaisySeedDeveloper/gcc-arm-none-eabi-10-2020-q4-major/arm-none-eabi/include/c++/10.2.1/bits/basic_string.h **** 
 166:/home/luca/DaisySeedDeveloper/gcc-arm-none-eabi-10-2020-q4-major/arm-none-eabi/include/c++/10.2.1/bits/basic_string.h ****       _Alloc_hider	_M_dataplus;
 167:/home/luca/DaisySeedDeveloper/gcc-arm-none-eabi-10-2020-q4-major/arm-none-eabi/include/c++/10.2.1/bits/basic_string.h ****       size_type		_M_string_length;
 168:/home/luca/DaisySeedDeveloper/gcc-arm-none-eabi-10-2020-q4-major/arm-none-eabi/include/c++/10.2.1/bits/basic_string.h **** 
 169:/home/luca/DaisySeedDeveloper/gcc-arm-none-eabi-10-2020-q4-major/arm-none-eabi/include/c++/10.2.1/bits/basic_string.h ****       enum { _S_local_capacity = 15 / sizeof(_CharT) };
 170:/home/luca/DaisySeedDeveloper/gcc-arm-none-eabi-10-2020-q4-major/arm-none-eabi/include/c++/10.2.1/bits/basic_string.h **** 
 171:/home/luca/DaisySeedDeveloper/gcc-arm-none-eabi-10-2020-q4-major/arm-none-eabi/include/c++/10.2.1/bits/basic_string.h ****       union
 172:/home/luca/DaisySeedDeveloper/gcc-arm-none-eabi-10-2020-q4-major/arm-none-eabi/include/c++/10.2.1/bits/basic_string.h ****       {
 173:/home/luca/DaisySeedDeveloper/gcc-arm-none-eabi-10-2020-q4-major/arm-none-eabi/include/c++/10.2.1/bits/basic_string.h **** 	_CharT           _M_local_buf[_S_local_capacity + 1];
 174:/home/luca/DaisySeedDeveloper/gcc-arm-none-eabi-10-2020-q4-major/arm-none-eabi/include/c++/10.2.1/bits/basic_string.h **** 	size_type        _M_allocated_capacity;
 175:/home/luca/DaisySeedDeveloper/gcc-arm-none-eabi-10-2020-q4-major/arm-none-eabi/include/c++/10.2.1/bits/basic_string.h ****       };
 176:/home/luca/DaisySeedDeveloper/gcc-arm-none-eabi-10-2020-q4-major/arm-none-eabi/include/c++/10.2.1/bits/basic_string.h **** 
 177:/home/luca/DaisySeedDeveloper/gcc-arm-none-eabi-10-2020-q4-major/arm-none-eabi/include/c++/10.2.1/bits/basic_string.h ****       void
 178:/home/luca/DaisySeedDeveloper/gcc-arm-none-eabi-10-2020-q4-major/arm-none-eabi/include/c++/10.2.1/bits/basic_string.h ****       _M_data(pointer __p)
 179:/home/luca/DaisySeedDeveloper/gcc-arm-none-eabi-10-2020-q4-major/arm-none-eabi/include/c++/10.2.1/bits/basic_string.h ****       { _M_dataplus._M_p = __p; }
 180:/home/luca/DaisySeedDeveloper/gcc-arm-none-eabi-10-2020-q4-major/arm-none-eabi/include/c++/10.2.1/bits/basic_string.h **** 
 181:/home/luca/DaisySeedDeveloper/gcc-arm-none-eabi-10-2020-q4-major/arm-none-eabi/include/c++/10.2.1/bits/basic_string.h ****       void
 182:/home/luca/DaisySeedDeveloper/gcc-arm-none-eabi-10-2020-q4-major/arm-none-eabi/include/c++/10.2.1/bits/basic_string.h ****       _M_length(size_type __length)
 183:/home/luca/DaisySeedDeveloper/gcc-arm-none-eabi-10-2020-q4-major/arm-none-eabi/include/c++/10.2.1/bits/basic_string.h ****       { _M_string_length = __length; }
 184:/home/luca/DaisySeedDeveloper/gcc-arm-none-eabi-10-2020-q4-major/arm-none-eabi/include/c++/10.2.1/bits/basic_string.h **** 
 185:/home/luca/DaisySeedDeveloper/gcc-arm-none-eabi-10-2020-q4-major/arm-none-eabi/include/c++/10.2.1/bits/basic_string.h ****       pointer
 186:/home/luca/DaisySeedDeveloper/gcc-arm-none-eabi-10-2020-q4-major/arm-none-eabi/include/c++/10.2.1/bits/basic_string.h ****       _M_data() const
 187:/home/luca/DaisySeedDeveloper/gcc-arm-none-eabi-10-2020-q4-major/arm-none-eabi/include/c++/10.2.1/bits/basic_string.h ****       { return _M_dataplus._M_p; }
 188:/home/luca/DaisySeedDeveloper/gcc-arm-none-eabi-10-2020-q4-major/arm-none-eabi/include/c++/10.2.1/bits/basic_string.h **** 
 189:/home/luca/DaisySeedDeveloper/gcc-arm-none-eabi-10-2020-q4-major/arm-none-eabi/include/c++/10.2.1/bits/basic_string.h ****       pointer
 190:/home/luca/DaisySeedDeveloper/gcc-arm-none-eabi-10-2020-q4-major/arm-none-eabi/include/c++/10.2.1/bits/basic_string.h ****       _M_local_data()
 191:/home/luca/DaisySeedDeveloper/gcc-arm-none-eabi-10-2020-q4-major/arm-none-eabi/include/c++/10.2.1/bits/basic_string.h ****       {
 192:/home/luca/DaisySeedDeveloper/gcc-arm-none-eabi-10-2020-q4-major/arm-none-eabi/include/c++/10.2.1/bits/basic_string.h **** #if __cplusplus >= 201103L
 193:/home/luca/DaisySeedDeveloper/gcc-arm-none-eabi-10-2020-q4-major/arm-none-eabi/include/c++/10.2.1/bits/basic_string.h **** 	return std::pointer_traits<pointer>::pointer_to(*_M_local_buf);
 194:/home/luca/DaisySeedDeveloper/gcc-arm-none-eabi-10-2020-q4-major/arm-none-eabi/include/c++/10.2.1/bits/basic_string.h **** #else
 195:/home/luca/DaisySeedDeveloper/gcc-arm-none-eabi-10-2020-q4-major/arm-none-eabi/include/c++/10.2.1/bits/basic_string.h **** 	return pointer(_M_local_buf);
 196:/home/luca/DaisySeedDeveloper/gcc-arm-none-eabi-10-2020-q4-major/arm-none-eabi/include/c++/10.2.1/bits/basic_string.h **** #endif
 197:/home/luca/DaisySeedDeveloper/gcc-arm-none-eabi-10-2020-q4-major/arm-none-eabi/include/c++/10.2.1/bits/basic_string.h ****       }
 198:/home/luca/DaisySeedDeveloper/gcc-arm-none-eabi-10-2020-q4-major/arm-none-eabi/include/c++/10.2.1/bits/basic_string.h **** 
 199:/home/luca/DaisySeedDeveloper/gcc-arm-none-eabi-10-2020-q4-major/arm-none-eabi/include/c++/10.2.1/bits/basic_string.h ****       const_pointer
ARM GAS  /tmp/ccOjaarx.s 			page 26


 200:/home/luca/DaisySeedDeveloper/gcc-arm-none-eabi-10-2020-q4-major/arm-none-eabi/include/c++/10.2.1/bits/basic_string.h ****       _M_local_data() const
 201:/home/luca/DaisySeedDeveloper/gcc-arm-none-eabi-10-2020-q4-major/arm-none-eabi/include/c++/10.2.1/bits/basic_string.h ****       {
 202:/home/luca/DaisySeedDeveloper/gcc-arm-none-eabi-10-2020-q4-major/arm-none-eabi/include/c++/10.2.1/bits/basic_string.h **** #if __cplusplus >= 201103L
 203:/home/luca/DaisySeedDeveloper/gcc-arm-none-eabi-10-2020-q4-major/arm-none-eabi/include/c++/10.2.1/bits/basic_string.h **** 	return std::pointer_traits<const_pointer>::pointer_to(*_M_local_buf);
 204:/home/luca/DaisySeedDeveloper/gcc-arm-none-eabi-10-2020-q4-major/arm-none-eabi/include/c++/10.2.1/bits/basic_string.h **** #else
 205:/home/luca/DaisySeedDeveloper/gcc-arm-none-eabi-10-2020-q4-major/arm-none-eabi/include/c++/10.2.1/bits/basic_string.h **** 	return const_pointer(_M_local_buf);
 206:/home/luca/DaisySeedDeveloper/gcc-arm-none-eabi-10-2020-q4-major/arm-none-eabi/include/c++/10.2.1/bits/basic_string.h **** #endif
 207:/home/luca/DaisySeedDeveloper/gcc-arm-none-eabi-10-2020-q4-major/arm-none-eabi/include/c++/10.2.1/bits/basic_string.h ****       }
 208:/home/luca/DaisySeedDeveloper/gcc-arm-none-eabi-10-2020-q4-major/arm-none-eabi/include/c++/10.2.1/bits/basic_string.h **** 
 209:/home/luca/DaisySeedDeveloper/gcc-arm-none-eabi-10-2020-q4-major/arm-none-eabi/include/c++/10.2.1/bits/basic_string.h ****       void
 210:/home/luca/DaisySeedDeveloper/gcc-arm-none-eabi-10-2020-q4-major/arm-none-eabi/include/c++/10.2.1/bits/basic_string.h ****       _M_capacity(size_type __capacity)
 211:/home/luca/DaisySeedDeveloper/gcc-arm-none-eabi-10-2020-q4-major/arm-none-eabi/include/c++/10.2.1/bits/basic_string.h ****       { _M_allocated_capacity = __capacity; }
 212:/home/luca/DaisySeedDeveloper/gcc-arm-none-eabi-10-2020-q4-major/arm-none-eabi/include/c++/10.2.1/bits/basic_string.h **** 
 213:/home/luca/DaisySeedDeveloper/gcc-arm-none-eabi-10-2020-q4-major/arm-none-eabi/include/c++/10.2.1/bits/basic_string.h ****       void
 214:/home/luca/DaisySeedDeveloper/gcc-arm-none-eabi-10-2020-q4-major/arm-none-eabi/include/c++/10.2.1/bits/basic_string.h ****       _M_set_length(size_type __n)
 215:/home/luca/DaisySeedDeveloper/gcc-arm-none-eabi-10-2020-q4-major/arm-none-eabi/include/c++/10.2.1/bits/basic_string.h ****       {
 216:/home/luca/DaisySeedDeveloper/gcc-arm-none-eabi-10-2020-q4-major/arm-none-eabi/include/c++/10.2.1/bits/basic_string.h **** 	_M_length(__n);
 217:/home/luca/DaisySeedDeveloper/gcc-arm-none-eabi-10-2020-q4-major/arm-none-eabi/include/c++/10.2.1/bits/basic_string.h **** 	traits_type::assign(_M_data()[__n], _CharT());
 218:/home/luca/DaisySeedDeveloper/gcc-arm-none-eabi-10-2020-q4-major/arm-none-eabi/include/c++/10.2.1/bits/basic_string.h ****       }
 219:/home/luca/DaisySeedDeveloper/gcc-arm-none-eabi-10-2020-q4-major/arm-none-eabi/include/c++/10.2.1/bits/basic_string.h **** 
 220:/home/luca/DaisySeedDeveloper/gcc-arm-none-eabi-10-2020-q4-major/arm-none-eabi/include/c++/10.2.1/bits/basic_string.h ****       bool
 221:/home/luca/DaisySeedDeveloper/gcc-arm-none-eabi-10-2020-q4-major/arm-none-eabi/include/c++/10.2.1/bits/basic_string.h ****       _M_is_local() const
 222:/home/luca/DaisySeedDeveloper/gcc-arm-none-eabi-10-2020-q4-major/arm-none-eabi/include/c++/10.2.1/bits/basic_string.h ****       { return _M_data() == _M_local_data(); }
 223:/home/luca/DaisySeedDeveloper/gcc-arm-none-eabi-10-2020-q4-major/arm-none-eabi/include/c++/10.2.1/bits/basic_string.h **** 
 224:/home/luca/DaisySeedDeveloper/gcc-arm-none-eabi-10-2020-q4-major/arm-none-eabi/include/c++/10.2.1/bits/basic_string.h ****       // Create & Destroy
 225:/home/luca/DaisySeedDeveloper/gcc-arm-none-eabi-10-2020-q4-major/arm-none-eabi/include/c++/10.2.1/bits/basic_string.h ****       pointer
 226:/home/luca/DaisySeedDeveloper/gcc-arm-none-eabi-10-2020-q4-major/arm-none-eabi/include/c++/10.2.1/bits/basic_string.h ****       _M_create(size_type&, size_type);
 227:/home/luca/DaisySeedDeveloper/gcc-arm-none-eabi-10-2020-q4-major/arm-none-eabi/include/c++/10.2.1/bits/basic_string.h **** 
 228:/home/luca/DaisySeedDeveloper/gcc-arm-none-eabi-10-2020-q4-major/arm-none-eabi/include/c++/10.2.1/bits/basic_string.h ****       void
 229:/home/luca/DaisySeedDeveloper/gcc-arm-none-eabi-10-2020-q4-major/arm-none-eabi/include/c++/10.2.1/bits/basic_string.h ****       _M_dispose()
 230:/home/luca/DaisySeedDeveloper/gcc-arm-none-eabi-10-2020-q4-major/arm-none-eabi/include/c++/10.2.1/bits/basic_string.h ****       {
 231:/home/luca/DaisySeedDeveloper/gcc-arm-none-eabi-10-2020-q4-major/arm-none-eabi/include/c++/10.2.1/bits/basic_string.h **** 	if (!_M_is_local())
 232:/home/luca/DaisySeedDeveloper/gcc-arm-none-eabi-10-2020-q4-major/arm-none-eabi/include/c++/10.2.1/bits/basic_string.h **** 	  _M_destroy(_M_allocated_capacity);
 233:/home/luca/DaisySeedDeveloper/gcc-arm-none-eabi-10-2020-q4-major/arm-none-eabi/include/c++/10.2.1/bits/basic_string.h ****       }
 234:/home/luca/DaisySeedDeveloper/gcc-arm-none-eabi-10-2020-q4-major/arm-none-eabi/include/c++/10.2.1/bits/basic_string.h **** 
 235:/home/luca/DaisySeedDeveloper/gcc-arm-none-eabi-10-2020-q4-major/arm-none-eabi/include/c++/10.2.1/bits/basic_string.h ****       void
 236:/home/luca/DaisySeedDeveloper/gcc-arm-none-eabi-10-2020-q4-major/arm-none-eabi/include/c++/10.2.1/bits/basic_string.h ****       _M_destroy(size_type __size) throw()
 237:/home/luca/DaisySeedDeveloper/gcc-arm-none-eabi-10-2020-q4-major/arm-none-eabi/include/c++/10.2.1/bits/basic_string.h ****       { _Alloc_traits::deallocate(_M_get_allocator(), _M_data(), __size + 1); }
 238:/home/luca/DaisySeedDeveloper/gcc-arm-none-eabi-10-2020-q4-major/arm-none-eabi/include/c++/10.2.1/bits/basic_string.h **** 
 239:/home/luca/DaisySeedDeveloper/gcc-arm-none-eabi-10-2020-q4-major/arm-none-eabi/include/c++/10.2.1/bits/basic_string.h ****       // _M_construct_aux is used to implement the 21.3.1 para 15 which
 240:/home/luca/DaisySeedDeveloper/gcc-arm-none-eabi-10-2020-q4-major/arm-none-eabi/include/c++/10.2.1/bits/basic_string.h ****       // requires special behaviour if _InIterator is an integral type
 241:/home/luca/DaisySeedDeveloper/gcc-arm-none-eabi-10-2020-q4-major/arm-none-eabi/include/c++/10.2.1/bits/basic_string.h ****       template<typename _InIterator>
 242:/home/luca/DaisySeedDeveloper/gcc-arm-none-eabi-10-2020-q4-major/arm-none-eabi/include/c++/10.2.1/bits/basic_string.h ****         void
 243:/home/luca/DaisySeedDeveloper/gcc-arm-none-eabi-10-2020-q4-major/arm-none-eabi/include/c++/10.2.1/bits/basic_string.h ****         _M_construct_aux(_InIterator __beg, _InIterator __end,
 244:/home/luca/DaisySeedDeveloper/gcc-arm-none-eabi-10-2020-q4-major/arm-none-eabi/include/c++/10.2.1/bits/basic_string.h **** 			 std::__false_type)
 245:/home/luca/DaisySeedDeveloper/gcc-arm-none-eabi-10-2020-q4-major/arm-none-eabi/include/c++/10.2.1/bits/basic_string.h **** 	{
 246:/home/luca/DaisySeedDeveloper/gcc-arm-none-eabi-10-2020-q4-major/arm-none-eabi/include/c++/10.2.1/bits/basic_string.h ****           typedef typename iterator_traits<_InIterator>::iterator_category _Tag;
 247:/home/luca/DaisySeedDeveloper/gcc-arm-none-eabi-10-2020-q4-major/arm-none-eabi/include/c++/10.2.1/bits/basic_string.h ****           _M_construct(__beg, __end, _Tag());
 248:/home/luca/DaisySeedDeveloper/gcc-arm-none-eabi-10-2020-q4-major/arm-none-eabi/include/c++/10.2.1/bits/basic_string.h **** 	}
 249:/home/luca/DaisySeedDeveloper/gcc-arm-none-eabi-10-2020-q4-major/arm-none-eabi/include/c++/10.2.1/bits/basic_string.h **** 
 250:/home/luca/DaisySeedDeveloper/gcc-arm-none-eabi-10-2020-q4-major/arm-none-eabi/include/c++/10.2.1/bits/basic_string.h ****       // _GLIBCXX_RESOLVE_LIB_DEFECTS
 251:/home/luca/DaisySeedDeveloper/gcc-arm-none-eabi-10-2020-q4-major/arm-none-eabi/include/c++/10.2.1/bits/basic_string.h ****       // 438. Ambiguity in the "do the right thing" clause
 252:/home/luca/DaisySeedDeveloper/gcc-arm-none-eabi-10-2020-q4-major/arm-none-eabi/include/c++/10.2.1/bits/basic_string.h ****       template<typename _Integer>
 253:/home/luca/DaisySeedDeveloper/gcc-arm-none-eabi-10-2020-q4-major/arm-none-eabi/include/c++/10.2.1/bits/basic_string.h ****         void
 254:/home/luca/DaisySeedDeveloper/gcc-arm-none-eabi-10-2020-q4-major/arm-none-eabi/include/c++/10.2.1/bits/basic_string.h ****         _M_construct_aux(_Integer __beg, _Integer __end, std::__true_type)
 255:/home/luca/DaisySeedDeveloper/gcc-arm-none-eabi-10-2020-q4-major/arm-none-eabi/include/c++/10.2.1/bits/basic_string.h **** 	{ _M_construct_aux_2(static_cast<size_type>(__beg), __end); }
 256:/home/luca/DaisySeedDeveloper/gcc-arm-none-eabi-10-2020-q4-major/arm-none-eabi/include/c++/10.2.1/bits/basic_string.h **** 
ARM GAS  /tmp/ccOjaarx.s 			page 27


 257:/home/luca/DaisySeedDeveloper/gcc-arm-none-eabi-10-2020-q4-major/arm-none-eabi/include/c++/10.2.1/bits/basic_string.h ****       void
 258:/home/luca/DaisySeedDeveloper/gcc-arm-none-eabi-10-2020-q4-major/arm-none-eabi/include/c++/10.2.1/bits/basic_string.h ****       _M_construct_aux_2(size_type __req, _CharT __c)
 259:/home/luca/DaisySeedDeveloper/gcc-arm-none-eabi-10-2020-q4-major/arm-none-eabi/include/c++/10.2.1/bits/basic_string.h ****       { _M_construct(__req, __c); }
 260:/home/luca/DaisySeedDeveloper/gcc-arm-none-eabi-10-2020-q4-major/arm-none-eabi/include/c++/10.2.1/bits/basic_string.h **** 
 261:/home/luca/DaisySeedDeveloper/gcc-arm-none-eabi-10-2020-q4-major/arm-none-eabi/include/c++/10.2.1/bits/basic_string.h ****       template<typename _InIterator>
 262:/home/luca/DaisySeedDeveloper/gcc-arm-none-eabi-10-2020-q4-major/arm-none-eabi/include/c++/10.2.1/bits/basic_string.h ****         void
 263:/home/luca/DaisySeedDeveloper/gcc-arm-none-eabi-10-2020-q4-major/arm-none-eabi/include/c++/10.2.1/bits/basic_string.h ****         _M_construct(_InIterator __beg, _InIterator __end)
 264:/home/luca/DaisySeedDeveloper/gcc-arm-none-eabi-10-2020-q4-major/arm-none-eabi/include/c++/10.2.1/bits/basic_string.h **** 	{
 265:/home/luca/DaisySeedDeveloper/gcc-arm-none-eabi-10-2020-q4-major/arm-none-eabi/include/c++/10.2.1/bits/basic_string.h **** 	  typedef typename std::__is_integer<_InIterator>::__type _Integral;
 266:/home/luca/DaisySeedDeveloper/gcc-arm-none-eabi-10-2020-q4-major/arm-none-eabi/include/c++/10.2.1/bits/basic_string.h **** 	  _M_construct_aux(__beg, __end, _Integral());
 267:/home/luca/DaisySeedDeveloper/gcc-arm-none-eabi-10-2020-q4-major/arm-none-eabi/include/c++/10.2.1/bits/basic_string.h ****         }
 268:/home/luca/DaisySeedDeveloper/gcc-arm-none-eabi-10-2020-q4-major/arm-none-eabi/include/c++/10.2.1/bits/basic_string.h **** 
 269:/home/luca/DaisySeedDeveloper/gcc-arm-none-eabi-10-2020-q4-major/arm-none-eabi/include/c++/10.2.1/bits/basic_string.h ****       // For Input Iterators, used in istreambuf_iterators, etc.
 270:/home/luca/DaisySeedDeveloper/gcc-arm-none-eabi-10-2020-q4-major/arm-none-eabi/include/c++/10.2.1/bits/basic_string.h ****       template<typename _InIterator>
 271:/home/luca/DaisySeedDeveloper/gcc-arm-none-eabi-10-2020-q4-major/arm-none-eabi/include/c++/10.2.1/bits/basic_string.h ****         void
 272:/home/luca/DaisySeedDeveloper/gcc-arm-none-eabi-10-2020-q4-major/arm-none-eabi/include/c++/10.2.1/bits/basic_string.h ****         _M_construct(_InIterator __beg, _InIterator __end,
 273:/home/luca/DaisySeedDeveloper/gcc-arm-none-eabi-10-2020-q4-major/arm-none-eabi/include/c++/10.2.1/bits/basic_string.h **** 		     std::input_iterator_tag);
 274:/home/luca/DaisySeedDeveloper/gcc-arm-none-eabi-10-2020-q4-major/arm-none-eabi/include/c++/10.2.1/bits/basic_string.h **** 
 275:/home/luca/DaisySeedDeveloper/gcc-arm-none-eabi-10-2020-q4-major/arm-none-eabi/include/c++/10.2.1/bits/basic_string.h ****       // For forward_iterators up to random_access_iterators, used for
 276:/home/luca/DaisySeedDeveloper/gcc-arm-none-eabi-10-2020-q4-major/arm-none-eabi/include/c++/10.2.1/bits/basic_string.h ****       // string::iterator, _CharT*, etc.
 277:/home/luca/DaisySeedDeveloper/gcc-arm-none-eabi-10-2020-q4-major/arm-none-eabi/include/c++/10.2.1/bits/basic_string.h ****       template<typename _FwdIterator>
 278:/home/luca/DaisySeedDeveloper/gcc-arm-none-eabi-10-2020-q4-major/arm-none-eabi/include/c++/10.2.1/bits/basic_string.h ****         void
 279:/home/luca/DaisySeedDeveloper/gcc-arm-none-eabi-10-2020-q4-major/arm-none-eabi/include/c++/10.2.1/bits/basic_string.h ****         _M_construct(_FwdIterator __beg, _FwdIterator __end,
 280:/home/luca/DaisySeedDeveloper/gcc-arm-none-eabi-10-2020-q4-major/arm-none-eabi/include/c++/10.2.1/bits/basic_string.h **** 		     std::forward_iterator_tag);
 281:/home/luca/DaisySeedDeveloper/gcc-arm-none-eabi-10-2020-q4-major/arm-none-eabi/include/c++/10.2.1/bits/basic_string.h **** 
 282:/home/luca/DaisySeedDeveloper/gcc-arm-none-eabi-10-2020-q4-major/arm-none-eabi/include/c++/10.2.1/bits/basic_string.h ****       void
 283:/home/luca/DaisySeedDeveloper/gcc-arm-none-eabi-10-2020-q4-major/arm-none-eabi/include/c++/10.2.1/bits/basic_string.h ****       _M_construct(size_type __req, _CharT __c);
 284:/home/luca/DaisySeedDeveloper/gcc-arm-none-eabi-10-2020-q4-major/arm-none-eabi/include/c++/10.2.1/bits/basic_string.h **** 
 285:/home/luca/DaisySeedDeveloper/gcc-arm-none-eabi-10-2020-q4-major/arm-none-eabi/include/c++/10.2.1/bits/basic_string.h ****       allocator_type&
 286:/home/luca/DaisySeedDeveloper/gcc-arm-none-eabi-10-2020-q4-major/arm-none-eabi/include/c++/10.2.1/bits/basic_string.h ****       _M_get_allocator()
 287:/home/luca/DaisySeedDeveloper/gcc-arm-none-eabi-10-2020-q4-major/arm-none-eabi/include/c++/10.2.1/bits/basic_string.h ****       { return _M_dataplus; }
 288:/home/luca/DaisySeedDeveloper/gcc-arm-none-eabi-10-2020-q4-major/arm-none-eabi/include/c++/10.2.1/bits/basic_string.h **** 
 289:/home/luca/DaisySeedDeveloper/gcc-arm-none-eabi-10-2020-q4-major/arm-none-eabi/include/c++/10.2.1/bits/basic_string.h ****       const allocator_type&
 290:/home/luca/DaisySeedDeveloper/gcc-arm-none-eabi-10-2020-q4-major/arm-none-eabi/include/c++/10.2.1/bits/basic_string.h ****       _M_get_allocator() const
 291:/home/luca/DaisySeedDeveloper/gcc-arm-none-eabi-10-2020-q4-major/arm-none-eabi/include/c++/10.2.1/bits/basic_string.h ****       { return _M_dataplus; }
 292:/home/luca/DaisySeedDeveloper/gcc-arm-none-eabi-10-2020-q4-major/arm-none-eabi/include/c++/10.2.1/bits/basic_string.h **** 
 293:/home/luca/DaisySeedDeveloper/gcc-arm-none-eabi-10-2020-q4-major/arm-none-eabi/include/c++/10.2.1/bits/basic_string.h ****     private:
 294:/home/luca/DaisySeedDeveloper/gcc-arm-none-eabi-10-2020-q4-major/arm-none-eabi/include/c++/10.2.1/bits/basic_string.h **** 
 295:/home/luca/DaisySeedDeveloper/gcc-arm-none-eabi-10-2020-q4-major/arm-none-eabi/include/c++/10.2.1/bits/basic_string.h **** #ifdef _GLIBCXX_DISAMBIGUATE_REPLACE_INST
 296:/home/luca/DaisySeedDeveloper/gcc-arm-none-eabi-10-2020-q4-major/arm-none-eabi/include/c++/10.2.1/bits/basic_string.h ****       // The explicit instantiations in misc-inst.cc require this due to
 297:/home/luca/DaisySeedDeveloper/gcc-arm-none-eabi-10-2020-q4-major/arm-none-eabi/include/c++/10.2.1/bits/basic_string.h ****       // https://gcc.gnu.org/bugzilla/show_bug.cgi?id=64063
 298:/home/luca/DaisySeedDeveloper/gcc-arm-none-eabi-10-2020-q4-major/arm-none-eabi/include/c++/10.2.1/bits/basic_string.h ****       template<typename _Tp, bool _Requires =
 299:/home/luca/DaisySeedDeveloper/gcc-arm-none-eabi-10-2020-q4-major/arm-none-eabi/include/c++/10.2.1/bits/basic_string.h **** 	       !__are_same<_Tp, _CharT*>::__value
 300:/home/luca/DaisySeedDeveloper/gcc-arm-none-eabi-10-2020-q4-major/arm-none-eabi/include/c++/10.2.1/bits/basic_string.h **** 	       && !__are_same<_Tp, const _CharT*>::__value
 301:/home/luca/DaisySeedDeveloper/gcc-arm-none-eabi-10-2020-q4-major/arm-none-eabi/include/c++/10.2.1/bits/basic_string.h **** 	       && !__are_same<_Tp, iterator>::__value
 302:/home/luca/DaisySeedDeveloper/gcc-arm-none-eabi-10-2020-q4-major/arm-none-eabi/include/c++/10.2.1/bits/basic_string.h **** 	       && !__are_same<_Tp, const_iterator>::__value>
 303:/home/luca/DaisySeedDeveloper/gcc-arm-none-eabi-10-2020-q4-major/arm-none-eabi/include/c++/10.2.1/bits/basic_string.h **** 	struct __enable_if_not_native_iterator
 304:/home/luca/DaisySeedDeveloper/gcc-arm-none-eabi-10-2020-q4-major/arm-none-eabi/include/c++/10.2.1/bits/basic_string.h **** 	{ typedef basic_string& __type; };
 305:/home/luca/DaisySeedDeveloper/gcc-arm-none-eabi-10-2020-q4-major/arm-none-eabi/include/c++/10.2.1/bits/basic_string.h ****       template<typename _Tp>
 306:/home/luca/DaisySeedDeveloper/gcc-arm-none-eabi-10-2020-q4-major/arm-none-eabi/include/c++/10.2.1/bits/basic_string.h **** 	struct __enable_if_not_native_iterator<_Tp, false> { };
 307:/home/luca/DaisySeedDeveloper/gcc-arm-none-eabi-10-2020-q4-major/arm-none-eabi/include/c++/10.2.1/bits/basic_string.h **** #endif
 308:/home/luca/DaisySeedDeveloper/gcc-arm-none-eabi-10-2020-q4-major/arm-none-eabi/include/c++/10.2.1/bits/basic_string.h **** 
 309:/home/luca/DaisySeedDeveloper/gcc-arm-none-eabi-10-2020-q4-major/arm-none-eabi/include/c++/10.2.1/bits/basic_string.h ****       size_type
 310:/home/luca/DaisySeedDeveloper/gcc-arm-none-eabi-10-2020-q4-major/arm-none-eabi/include/c++/10.2.1/bits/basic_string.h ****       _M_check(size_type __pos, const char* __s) const
 311:/home/luca/DaisySeedDeveloper/gcc-arm-none-eabi-10-2020-q4-major/arm-none-eabi/include/c++/10.2.1/bits/basic_string.h ****       {
 312:/home/luca/DaisySeedDeveloper/gcc-arm-none-eabi-10-2020-q4-major/arm-none-eabi/include/c++/10.2.1/bits/basic_string.h **** 	if (__pos > this->size())
 313:/home/luca/DaisySeedDeveloper/gcc-arm-none-eabi-10-2020-q4-major/arm-none-eabi/include/c++/10.2.1/bits/basic_string.h **** 	  __throw_out_of_range_fmt(__N("%s: __pos (which is %zu) > "
ARM GAS  /tmp/ccOjaarx.s 			page 28


 314:/home/luca/DaisySeedDeveloper/gcc-arm-none-eabi-10-2020-q4-major/arm-none-eabi/include/c++/10.2.1/bits/basic_string.h **** 				       "this->size() (which is %zu)"),
 315:/home/luca/DaisySeedDeveloper/gcc-arm-none-eabi-10-2020-q4-major/arm-none-eabi/include/c++/10.2.1/bits/basic_string.h **** 				   __s, __pos, this->size());
 316:/home/luca/DaisySeedDeveloper/gcc-arm-none-eabi-10-2020-q4-major/arm-none-eabi/include/c++/10.2.1/bits/basic_string.h **** 	return __pos;
 317:/home/luca/DaisySeedDeveloper/gcc-arm-none-eabi-10-2020-q4-major/arm-none-eabi/include/c++/10.2.1/bits/basic_string.h ****       }
 318:/home/luca/DaisySeedDeveloper/gcc-arm-none-eabi-10-2020-q4-major/arm-none-eabi/include/c++/10.2.1/bits/basic_string.h **** 
 319:/home/luca/DaisySeedDeveloper/gcc-arm-none-eabi-10-2020-q4-major/arm-none-eabi/include/c++/10.2.1/bits/basic_string.h ****       void
 320:/home/luca/DaisySeedDeveloper/gcc-arm-none-eabi-10-2020-q4-major/arm-none-eabi/include/c++/10.2.1/bits/basic_string.h ****       _M_check_length(size_type __n1, size_type __n2, const char* __s) const
 321:/home/luca/DaisySeedDeveloper/gcc-arm-none-eabi-10-2020-q4-major/arm-none-eabi/include/c++/10.2.1/bits/basic_string.h ****       {
 322:/home/luca/DaisySeedDeveloper/gcc-arm-none-eabi-10-2020-q4-major/arm-none-eabi/include/c++/10.2.1/bits/basic_string.h **** 	if (this->max_size() - (this->size() - __n1) < __n2)
 323:/home/luca/DaisySeedDeveloper/gcc-arm-none-eabi-10-2020-q4-major/arm-none-eabi/include/c++/10.2.1/bits/basic_string.h **** 	  __throw_length_error(__N(__s));
 324:/home/luca/DaisySeedDeveloper/gcc-arm-none-eabi-10-2020-q4-major/arm-none-eabi/include/c++/10.2.1/bits/basic_string.h ****       }
 325:/home/luca/DaisySeedDeveloper/gcc-arm-none-eabi-10-2020-q4-major/arm-none-eabi/include/c++/10.2.1/bits/basic_string.h **** 
 326:/home/luca/DaisySeedDeveloper/gcc-arm-none-eabi-10-2020-q4-major/arm-none-eabi/include/c++/10.2.1/bits/basic_string.h **** 
 327:/home/luca/DaisySeedDeveloper/gcc-arm-none-eabi-10-2020-q4-major/arm-none-eabi/include/c++/10.2.1/bits/basic_string.h ****       // NB: _M_limit doesn't check for a bad __pos value.
 328:/home/luca/DaisySeedDeveloper/gcc-arm-none-eabi-10-2020-q4-major/arm-none-eabi/include/c++/10.2.1/bits/basic_string.h ****       size_type
 329:/home/luca/DaisySeedDeveloper/gcc-arm-none-eabi-10-2020-q4-major/arm-none-eabi/include/c++/10.2.1/bits/basic_string.h ****       _M_limit(size_type __pos, size_type __off) const _GLIBCXX_NOEXCEPT
 330:/home/luca/DaisySeedDeveloper/gcc-arm-none-eabi-10-2020-q4-major/arm-none-eabi/include/c++/10.2.1/bits/basic_string.h ****       {
 331:/home/luca/DaisySeedDeveloper/gcc-arm-none-eabi-10-2020-q4-major/arm-none-eabi/include/c++/10.2.1/bits/basic_string.h **** 	const bool __testoff =  __off < this->size() - __pos;
 332:/home/luca/DaisySeedDeveloper/gcc-arm-none-eabi-10-2020-q4-major/arm-none-eabi/include/c++/10.2.1/bits/basic_string.h **** 	return __testoff ? __off : this->size() - __pos;
 333:/home/luca/DaisySeedDeveloper/gcc-arm-none-eabi-10-2020-q4-major/arm-none-eabi/include/c++/10.2.1/bits/basic_string.h ****       }
 334:/home/luca/DaisySeedDeveloper/gcc-arm-none-eabi-10-2020-q4-major/arm-none-eabi/include/c++/10.2.1/bits/basic_string.h **** 
 335:/home/luca/DaisySeedDeveloper/gcc-arm-none-eabi-10-2020-q4-major/arm-none-eabi/include/c++/10.2.1/bits/basic_string.h ****       // True if _Rep and source do not overlap.
 336:/home/luca/DaisySeedDeveloper/gcc-arm-none-eabi-10-2020-q4-major/arm-none-eabi/include/c++/10.2.1/bits/basic_string.h ****       bool
 337:/home/luca/DaisySeedDeveloper/gcc-arm-none-eabi-10-2020-q4-major/arm-none-eabi/include/c++/10.2.1/bits/basic_string.h ****       _M_disjunct(const _CharT* __s) const _GLIBCXX_NOEXCEPT
 338:/home/luca/DaisySeedDeveloper/gcc-arm-none-eabi-10-2020-q4-major/arm-none-eabi/include/c++/10.2.1/bits/basic_string.h ****       {
 339:/home/luca/DaisySeedDeveloper/gcc-arm-none-eabi-10-2020-q4-major/arm-none-eabi/include/c++/10.2.1/bits/basic_string.h **** 	return (less<const _CharT*>()(__s, _M_data())
 340:/home/luca/DaisySeedDeveloper/gcc-arm-none-eabi-10-2020-q4-major/arm-none-eabi/include/c++/10.2.1/bits/basic_string.h **** 		|| less<const _CharT*>()(_M_data() + this->size(), __s));
 341:/home/luca/DaisySeedDeveloper/gcc-arm-none-eabi-10-2020-q4-major/arm-none-eabi/include/c++/10.2.1/bits/basic_string.h ****       }
 342:/home/luca/DaisySeedDeveloper/gcc-arm-none-eabi-10-2020-q4-major/arm-none-eabi/include/c++/10.2.1/bits/basic_string.h **** 
 343:/home/luca/DaisySeedDeveloper/gcc-arm-none-eabi-10-2020-q4-major/arm-none-eabi/include/c++/10.2.1/bits/basic_string.h ****       // When __n = 1 way faster than the general multichar
 344:/home/luca/DaisySeedDeveloper/gcc-arm-none-eabi-10-2020-q4-major/arm-none-eabi/include/c++/10.2.1/bits/basic_string.h ****       // traits_type::copy/move/assign.
 345:/home/luca/DaisySeedDeveloper/gcc-arm-none-eabi-10-2020-q4-major/arm-none-eabi/include/c++/10.2.1/bits/basic_string.h ****       static void
 346:/home/luca/DaisySeedDeveloper/gcc-arm-none-eabi-10-2020-q4-major/arm-none-eabi/include/c++/10.2.1/bits/basic_string.h ****       _S_copy(_CharT* __d, const _CharT* __s, size_type __n)
 347:/home/luca/DaisySeedDeveloper/gcc-arm-none-eabi-10-2020-q4-major/arm-none-eabi/include/c++/10.2.1/bits/basic_string.h ****       {
 348:/home/luca/DaisySeedDeveloper/gcc-arm-none-eabi-10-2020-q4-major/arm-none-eabi/include/c++/10.2.1/bits/basic_string.h **** 	if (__n == 1)
 349:/home/luca/DaisySeedDeveloper/gcc-arm-none-eabi-10-2020-q4-major/arm-none-eabi/include/c++/10.2.1/bits/basic_string.h **** 	  traits_type::assign(*__d, *__s);
 350:/home/luca/DaisySeedDeveloper/gcc-arm-none-eabi-10-2020-q4-major/arm-none-eabi/include/c++/10.2.1/bits/basic_string.h **** 	else
 351:/home/luca/DaisySeedDeveloper/gcc-arm-none-eabi-10-2020-q4-major/arm-none-eabi/include/c++/10.2.1/bits/basic_string.h **** 	  traits_type::copy(__d, __s, __n);
 352:/home/luca/DaisySeedDeveloper/gcc-arm-none-eabi-10-2020-q4-major/arm-none-eabi/include/c++/10.2.1/bits/basic_string.h ****       }
 353:/home/luca/DaisySeedDeveloper/gcc-arm-none-eabi-10-2020-q4-major/arm-none-eabi/include/c++/10.2.1/bits/basic_string.h **** 
 354:/home/luca/DaisySeedDeveloper/gcc-arm-none-eabi-10-2020-q4-major/arm-none-eabi/include/c++/10.2.1/bits/basic_string.h ****       static void
 355:/home/luca/DaisySeedDeveloper/gcc-arm-none-eabi-10-2020-q4-major/arm-none-eabi/include/c++/10.2.1/bits/basic_string.h ****       _S_move(_CharT* __d, const _CharT* __s, size_type __n)
 356:/home/luca/DaisySeedDeveloper/gcc-arm-none-eabi-10-2020-q4-major/arm-none-eabi/include/c++/10.2.1/bits/basic_string.h ****       {
 357:/home/luca/DaisySeedDeveloper/gcc-arm-none-eabi-10-2020-q4-major/arm-none-eabi/include/c++/10.2.1/bits/basic_string.h **** 	if (__n == 1)
 358:/home/luca/DaisySeedDeveloper/gcc-arm-none-eabi-10-2020-q4-major/arm-none-eabi/include/c++/10.2.1/bits/basic_string.h **** 	  traits_type::assign(*__d, *__s);
 359:/home/luca/DaisySeedDeveloper/gcc-arm-none-eabi-10-2020-q4-major/arm-none-eabi/include/c++/10.2.1/bits/basic_string.h **** 	else
 360:/home/luca/DaisySeedDeveloper/gcc-arm-none-eabi-10-2020-q4-major/arm-none-eabi/include/c++/10.2.1/bits/basic_string.h **** 	  traits_type::move(__d, __s, __n);
 361:/home/luca/DaisySeedDeveloper/gcc-arm-none-eabi-10-2020-q4-major/arm-none-eabi/include/c++/10.2.1/bits/basic_string.h ****       }
 362:/home/luca/DaisySeedDeveloper/gcc-arm-none-eabi-10-2020-q4-major/arm-none-eabi/include/c++/10.2.1/bits/basic_string.h **** 
 363:/home/luca/DaisySeedDeveloper/gcc-arm-none-eabi-10-2020-q4-major/arm-none-eabi/include/c++/10.2.1/bits/basic_string.h ****       static void
 364:/home/luca/DaisySeedDeveloper/gcc-arm-none-eabi-10-2020-q4-major/arm-none-eabi/include/c++/10.2.1/bits/basic_string.h ****       _S_assign(_CharT* __d, size_type __n, _CharT __c)
 365:/home/luca/DaisySeedDeveloper/gcc-arm-none-eabi-10-2020-q4-major/arm-none-eabi/include/c++/10.2.1/bits/basic_string.h ****       {
 366:/home/luca/DaisySeedDeveloper/gcc-arm-none-eabi-10-2020-q4-major/arm-none-eabi/include/c++/10.2.1/bits/basic_string.h **** 	if (__n == 1)
 367:/home/luca/DaisySeedDeveloper/gcc-arm-none-eabi-10-2020-q4-major/arm-none-eabi/include/c++/10.2.1/bits/basic_string.h **** 	  traits_type::assign(*__d, __c);
 368:/home/luca/DaisySeedDeveloper/gcc-arm-none-eabi-10-2020-q4-major/arm-none-eabi/include/c++/10.2.1/bits/basic_string.h **** 	else
 369:/home/luca/DaisySeedDeveloper/gcc-arm-none-eabi-10-2020-q4-major/arm-none-eabi/include/c++/10.2.1/bits/basic_string.h **** 	  traits_type::assign(__d, __n, __c);
 370:/home/luca/DaisySeedDeveloper/gcc-arm-none-eabi-10-2020-q4-major/arm-none-eabi/include/c++/10.2.1/bits/basic_string.h ****       }
ARM GAS  /tmp/ccOjaarx.s 			page 29


 371:/home/luca/DaisySeedDeveloper/gcc-arm-none-eabi-10-2020-q4-major/arm-none-eabi/include/c++/10.2.1/bits/basic_string.h **** 
 372:/home/luca/DaisySeedDeveloper/gcc-arm-none-eabi-10-2020-q4-major/arm-none-eabi/include/c++/10.2.1/bits/basic_string.h ****       // _S_copy_chars is a separate template to permit specialization
 373:/home/luca/DaisySeedDeveloper/gcc-arm-none-eabi-10-2020-q4-major/arm-none-eabi/include/c++/10.2.1/bits/basic_string.h ****       // to optimize for the common case of pointers as iterators.
 374:/home/luca/DaisySeedDeveloper/gcc-arm-none-eabi-10-2020-q4-major/arm-none-eabi/include/c++/10.2.1/bits/basic_string.h ****       template<class _Iterator>
 375:/home/luca/DaisySeedDeveloper/gcc-arm-none-eabi-10-2020-q4-major/arm-none-eabi/include/c++/10.2.1/bits/basic_string.h ****         static void
 376:/home/luca/DaisySeedDeveloper/gcc-arm-none-eabi-10-2020-q4-major/arm-none-eabi/include/c++/10.2.1/bits/basic_string.h ****         _S_copy_chars(_CharT* __p, _Iterator __k1, _Iterator __k2)
 377:/home/luca/DaisySeedDeveloper/gcc-arm-none-eabi-10-2020-q4-major/arm-none-eabi/include/c++/10.2.1/bits/basic_string.h ****         {
 378:/home/luca/DaisySeedDeveloper/gcc-arm-none-eabi-10-2020-q4-major/arm-none-eabi/include/c++/10.2.1/bits/basic_string.h **** 	  for (; __k1 != __k2; ++__k1, (void)++__p)
 379:/home/luca/DaisySeedDeveloper/gcc-arm-none-eabi-10-2020-q4-major/arm-none-eabi/include/c++/10.2.1/bits/basic_string.h **** 	    traits_type::assign(*__p, *__k1); // These types are off.
 380:/home/luca/DaisySeedDeveloper/gcc-arm-none-eabi-10-2020-q4-major/arm-none-eabi/include/c++/10.2.1/bits/basic_string.h **** 	}
 381:/home/luca/DaisySeedDeveloper/gcc-arm-none-eabi-10-2020-q4-major/arm-none-eabi/include/c++/10.2.1/bits/basic_string.h **** 
 382:/home/luca/DaisySeedDeveloper/gcc-arm-none-eabi-10-2020-q4-major/arm-none-eabi/include/c++/10.2.1/bits/basic_string.h ****       static void
 383:/home/luca/DaisySeedDeveloper/gcc-arm-none-eabi-10-2020-q4-major/arm-none-eabi/include/c++/10.2.1/bits/basic_string.h ****       _S_copy_chars(_CharT* __p, iterator __k1, iterator __k2) _GLIBCXX_NOEXCEPT
 384:/home/luca/DaisySeedDeveloper/gcc-arm-none-eabi-10-2020-q4-major/arm-none-eabi/include/c++/10.2.1/bits/basic_string.h ****       { _S_copy_chars(__p, __k1.base(), __k2.base()); }
 385:/home/luca/DaisySeedDeveloper/gcc-arm-none-eabi-10-2020-q4-major/arm-none-eabi/include/c++/10.2.1/bits/basic_string.h **** 
 386:/home/luca/DaisySeedDeveloper/gcc-arm-none-eabi-10-2020-q4-major/arm-none-eabi/include/c++/10.2.1/bits/basic_string.h ****       static void
 387:/home/luca/DaisySeedDeveloper/gcc-arm-none-eabi-10-2020-q4-major/arm-none-eabi/include/c++/10.2.1/bits/basic_string.h ****       _S_copy_chars(_CharT* __p, const_iterator __k1, const_iterator __k2)
 388:/home/luca/DaisySeedDeveloper/gcc-arm-none-eabi-10-2020-q4-major/arm-none-eabi/include/c++/10.2.1/bits/basic_string.h ****       _GLIBCXX_NOEXCEPT
 389:/home/luca/DaisySeedDeveloper/gcc-arm-none-eabi-10-2020-q4-major/arm-none-eabi/include/c++/10.2.1/bits/basic_string.h ****       { _S_copy_chars(__p, __k1.base(), __k2.base()); }
 390:/home/luca/DaisySeedDeveloper/gcc-arm-none-eabi-10-2020-q4-major/arm-none-eabi/include/c++/10.2.1/bits/basic_string.h **** 
 391:/home/luca/DaisySeedDeveloper/gcc-arm-none-eabi-10-2020-q4-major/arm-none-eabi/include/c++/10.2.1/bits/basic_string.h ****       static void
 392:/home/luca/DaisySeedDeveloper/gcc-arm-none-eabi-10-2020-q4-major/arm-none-eabi/include/c++/10.2.1/bits/basic_string.h ****       _S_copy_chars(_CharT* __p, _CharT* __k1, _CharT* __k2) _GLIBCXX_NOEXCEPT
 393:/home/luca/DaisySeedDeveloper/gcc-arm-none-eabi-10-2020-q4-major/arm-none-eabi/include/c++/10.2.1/bits/basic_string.h ****       { _S_copy(__p, __k1, __k2 - __k1); }
 394:/home/luca/DaisySeedDeveloper/gcc-arm-none-eabi-10-2020-q4-major/arm-none-eabi/include/c++/10.2.1/bits/basic_string.h **** 
 395:/home/luca/DaisySeedDeveloper/gcc-arm-none-eabi-10-2020-q4-major/arm-none-eabi/include/c++/10.2.1/bits/basic_string.h ****       static void
 396:/home/luca/DaisySeedDeveloper/gcc-arm-none-eabi-10-2020-q4-major/arm-none-eabi/include/c++/10.2.1/bits/basic_string.h ****       _S_copy_chars(_CharT* __p, const _CharT* __k1, const _CharT* __k2)
 397:/home/luca/DaisySeedDeveloper/gcc-arm-none-eabi-10-2020-q4-major/arm-none-eabi/include/c++/10.2.1/bits/basic_string.h ****       _GLIBCXX_NOEXCEPT
 398:/home/luca/DaisySeedDeveloper/gcc-arm-none-eabi-10-2020-q4-major/arm-none-eabi/include/c++/10.2.1/bits/basic_string.h ****       { _S_copy(__p, __k1, __k2 - __k1); }
 399:/home/luca/DaisySeedDeveloper/gcc-arm-none-eabi-10-2020-q4-major/arm-none-eabi/include/c++/10.2.1/bits/basic_string.h **** 
 400:/home/luca/DaisySeedDeveloper/gcc-arm-none-eabi-10-2020-q4-major/arm-none-eabi/include/c++/10.2.1/bits/basic_string.h ****       static int
 401:/home/luca/DaisySeedDeveloper/gcc-arm-none-eabi-10-2020-q4-major/arm-none-eabi/include/c++/10.2.1/bits/basic_string.h ****       _S_compare(size_type __n1, size_type __n2) _GLIBCXX_NOEXCEPT
 402:/home/luca/DaisySeedDeveloper/gcc-arm-none-eabi-10-2020-q4-major/arm-none-eabi/include/c++/10.2.1/bits/basic_string.h ****       {
 403:/home/luca/DaisySeedDeveloper/gcc-arm-none-eabi-10-2020-q4-major/arm-none-eabi/include/c++/10.2.1/bits/basic_string.h **** 	const difference_type __d = difference_type(__n1 - __n2);
 404:/home/luca/DaisySeedDeveloper/gcc-arm-none-eabi-10-2020-q4-major/arm-none-eabi/include/c++/10.2.1/bits/basic_string.h **** 
 405:/home/luca/DaisySeedDeveloper/gcc-arm-none-eabi-10-2020-q4-major/arm-none-eabi/include/c++/10.2.1/bits/basic_string.h **** 	if (__d > __gnu_cxx::__numeric_traits<int>::__max)
 406:/home/luca/DaisySeedDeveloper/gcc-arm-none-eabi-10-2020-q4-major/arm-none-eabi/include/c++/10.2.1/bits/basic_string.h **** 	  return __gnu_cxx::__numeric_traits<int>::__max;
 407:/home/luca/DaisySeedDeveloper/gcc-arm-none-eabi-10-2020-q4-major/arm-none-eabi/include/c++/10.2.1/bits/basic_string.h **** 	else if (__d < __gnu_cxx::__numeric_traits<int>::__min)
 408:/home/luca/DaisySeedDeveloper/gcc-arm-none-eabi-10-2020-q4-major/arm-none-eabi/include/c++/10.2.1/bits/basic_string.h **** 	  return __gnu_cxx::__numeric_traits<int>::__min;
 409:/home/luca/DaisySeedDeveloper/gcc-arm-none-eabi-10-2020-q4-major/arm-none-eabi/include/c++/10.2.1/bits/basic_string.h **** 	else
 410:/home/luca/DaisySeedDeveloper/gcc-arm-none-eabi-10-2020-q4-major/arm-none-eabi/include/c++/10.2.1/bits/basic_string.h **** 	  return int(__d);
 411:/home/luca/DaisySeedDeveloper/gcc-arm-none-eabi-10-2020-q4-major/arm-none-eabi/include/c++/10.2.1/bits/basic_string.h ****       }
 412:/home/luca/DaisySeedDeveloper/gcc-arm-none-eabi-10-2020-q4-major/arm-none-eabi/include/c++/10.2.1/bits/basic_string.h **** 
 413:/home/luca/DaisySeedDeveloper/gcc-arm-none-eabi-10-2020-q4-major/arm-none-eabi/include/c++/10.2.1/bits/basic_string.h ****       void
 414:/home/luca/DaisySeedDeveloper/gcc-arm-none-eabi-10-2020-q4-major/arm-none-eabi/include/c++/10.2.1/bits/basic_string.h ****       _M_assign(const basic_string&);
 415:/home/luca/DaisySeedDeveloper/gcc-arm-none-eabi-10-2020-q4-major/arm-none-eabi/include/c++/10.2.1/bits/basic_string.h **** 
 416:/home/luca/DaisySeedDeveloper/gcc-arm-none-eabi-10-2020-q4-major/arm-none-eabi/include/c++/10.2.1/bits/basic_string.h ****       void
 417:/home/luca/DaisySeedDeveloper/gcc-arm-none-eabi-10-2020-q4-major/arm-none-eabi/include/c++/10.2.1/bits/basic_string.h ****       _M_mutate(size_type __pos, size_type __len1, const _CharT* __s,
 418:/home/luca/DaisySeedDeveloper/gcc-arm-none-eabi-10-2020-q4-major/arm-none-eabi/include/c++/10.2.1/bits/basic_string.h **** 		size_type __len2);
 419:/home/luca/DaisySeedDeveloper/gcc-arm-none-eabi-10-2020-q4-major/arm-none-eabi/include/c++/10.2.1/bits/basic_string.h **** 
 420:/home/luca/DaisySeedDeveloper/gcc-arm-none-eabi-10-2020-q4-major/arm-none-eabi/include/c++/10.2.1/bits/basic_string.h ****       void
 421:/home/luca/DaisySeedDeveloper/gcc-arm-none-eabi-10-2020-q4-major/arm-none-eabi/include/c++/10.2.1/bits/basic_string.h ****       _M_erase(size_type __pos, size_type __n);
 422:/home/luca/DaisySeedDeveloper/gcc-arm-none-eabi-10-2020-q4-major/arm-none-eabi/include/c++/10.2.1/bits/basic_string.h **** 
 423:/home/luca/DaisySeedDeveloper/gcc-arm-none-eabi-10-2020-q4-major/arm-none-eabi/include/c++/10.2.1/bits/basic_string.h ****     public:
 424:/home/luca/DaisySeedDeveloper/gcc-arm-none-eabi-10-2020-q4-major/arm-none-eabi/include/c++/10.2.1/bits/basic_string.h ****       // Construct/copy/destroy:
 425:/home/luca/DaisySeedDeveloper/gcc-arm-none-eabi-10-2020-q4-major/arm-none-eabi/include/c++/10.2.1/bits/basic_string.h ****       // NB: We overload ctors in some cases instead of using default
 426:/home/luca/DaisySeedDeveloper/gcc-arm-none-eabi-10-2020-q4-major/arm-none-eabi/include/c++/10.2.1/bits/basic_string.h ****       // arguments, per 17.4.4.4 para. 2 item 2.
 427:/home/luca/DaisySeedDeveloper/gcc-arm-none-eabi-10-2020-q4-major/arm-none-eabi/include/c++/10.2.1/bits/basic_string.h **** 
ARM GAS  /tmp/ccOjaarx.s 			page 30


 428:/home/luca/DaisySeedDeveloper/gcc-arm-none-eabi-10-2020-q4-major/arm-none-eabi/include/c++/10.2.1/bits/basic_string.h ****       /**
 429:/home/luca/DaisySeedDeveloper/gcc-arm-none-eabi-10-2020-q4-major/arm-none-eabi/include/c++/10.2.1/bits/basic_string.h ****        *  @brief  Default constructor creates an empty string.
 430:/home/luca/DaisySeedDeveloper/gcc-arm-none-eabi-10-2020-q4-major/arm-none-eabi/include/c++/10.2.1/bits/basic_string.h ****        */
 431:/home/luca/DaisySeedDeveloper/gcc-arm-none-eabi-10-2020-q4-major/arm-none-eabi/include/c++/10.2.1/bits/basic_string.h ****       basic_string()
 432:/home/luca/DaisySeedDeveloper/gcc-arm-none-eabi-10-2020-q4-major/arm-none-eabi/include/c++/10.2.1/bits/basic_string.h ****       _GLIBCXX_NOEXCEPT_IF(is_nothrow_default_constructible<_Alloc>::value)
 433:/home/luca/DaisySeedDeveloper/gcc-arm-none-eabi-10-2020-q4-major/arm-none-eabi/include/c++/10.2.1/bits/basic_string.h ****       : _M_dataplus(_M_local_data())
 434:/home/luca/DaisySeedDeveloper/gcc-arm-none-eabi-10-2020-q4-major/arm-none-eabi/include/c++/10.2.1/bits/basic_string.h ****       { _M_set_length(0); }
 435:/home/luca/DaisySeedDeveloper/gcc-arm-none-eabi-10-2020-q4-major/arm-none-eabi/include/c++/10.2.1/bits/basic_string.h **** 
 436:/home/luca/DaisySeedDeveloper/gcc-arm-none-eabi-10-2020-q4-major/arm-none-eabi/include/c++/10.2.1/bits/basic_string.h ****       /**
 437:/home/luca/DaisySeedDeveloper/gcc-arm-none-eabi-10-2020-q4-major/arm-none-eabi/include/c++/10.2.1/bits/basic_string.h ****        *  @brief  Construct an empty string using allocator @a a.
 438:/home/luca/DaisySeedDeveloper/gcc-arm-none-eabi-10-2020-q4-major/arm-none-eabi/include/c++/10.2.1/bits/basic_string.h ****        */
 439:/home/luca/DaisySeedDeveloper/gcc-arm-none-eabi-10-2020-q4-major/arm-none-eabi/include/c++/10.2.1/bits/basic_string.h ****       explicit
 440:/home/luca/DaisySeedDeveloper/gcc-arm-none-eabi-10-2020-q4-major/arm-none-eabi/include/c++/10.2.1/bits/basic_string.h ****       basic_string(const _Alloc& __a) _GLIBCXX_NOEXCEPT
 441:/home/luca/DaisySeedDeveloper/gcc-arm-none-eabi-10-2020-q4-major/arm-none-eabi/include/c++/10.2.1/bits/basic_string.h ****       : _M_dataplus(_M_local_data(), __a)
 442:/home/luca/DaisySeedDeveloper/gcc-arm-none-eabi-10-2020-q4-major/arm-none-eabi/include/c++/10.2.1/bits/basic_string.h ****       { _M_set_length(0); }
 443:/home/luca/DaisySeedDeveloper/gcc-arm-none-eabi-10-2020-q4-major/arm-none-eabi/include/c++/10.2.1/bits/basic_string.h **** 
 444:/home/luca/DaisySeedDeveloper/gcc-arm-none-eabi-10-2020-q4-major/arm-none-eabi/include/c++/10.2.1/bits/basic_string.h ****       /**
 445:/home/luca/DaisySeedDeveloper/gcc-arm-none-eabi-10-2020-q4-major/arm-none-eabi/include/c++/10.2.1/bits/basic_string.h ****        *  @brief  Construct string with copy of value of @a __str.
 446:/home/luca/DaisySeedDeveloper/gcc-arm-none-eabi-10-2020-q4-major/arm-none-eabi/include/c++/10.2.1/bits/basic_string.h ****        *  @param  __str  Source string.
 447:/home/luca/DaisySeedDeveloper/gcc-arm-none-eabi-10-2020-q4-major/arm-none-eabi/include/c++/10.2.1/bits/basic_string.h ****        */
 448:/home/luca/DaisySeedDeveloper/gcc-arm-none-eabi-10-2020-q4-major/arm-none-eabi/include/c++/10.2.1/bits/basic_string.h ****       basic_string(const basic_string& __str)
 449:/home/luca/DaisySeedDeveloper/gcc-arm-none-eabi-10-2020-q4-major/arm-none-eabi/include/c++/10.2.1/bits/basic_string.h ****       : _M_dataplus(_M_local_data(),
 450:/home/luca/DaisySeedDeveloper/gcc-arm-none-eabi-10-2020-q4-major/arm-none-eabi/include/c++/10.2.1/bits/basic_string.h **** 		    _Alloc_traits::_S_select_on_copy(__str._M_get_allocator()))
 451:/home/luca/DaisySeedDeveloper/gcc-arm-none-eabi-10-2020-q4-major/arm-none-eabi/include/c++/10.2.1/bits/basic_string.h ****       { _M_construct(__str._M_data(), __str._M_data() + __str.length()); }
 452:/home/luca/DaisySeedDeveloper/gcc-arm-none-eabi-10-2020-q4-major/arm-none-eabi/include/c++/10.2.1/bits/basic_string.h **** 
 453:/home/luca/DaisySeedDeveloper/gcc-arm-none-eabi-10-2020-q4-major/arm-none-eabi/include/c++/10.2.1/bits/basic_string.h ****       // _GLIBCXX_RESOLVE_LIB_DEFECTS
 454:/home/luca/DaisySeedDeveloper/gcc-arm-none-eabi-10-2020-q4-major/arm-none-eabi/include/c++/10.2.1/bits/basic_string.h ****       // 2583. no way to supply an allocator for basic_string(str, pos)
 455:/home/luca/DaisySeedDeveloper/gcc-arm-none-eabi-10-2020-q4-major/arm-none-eabi/include/c++/10.2.1/bits/basic_string.h ****       /**
 456:/home/luca/DaisySeedDeveloper/gcc-arm-none-eabi-10-2020-q4-major/arm-none-eabi/include/c++/10.2.1/bits/basic_string.h ****        *  @brief  Construct string as copy of a substring.
 457:/home/luca/DaisySeedDeveloper/gcc-arm-none-eabi-10-2020-q4-major/arm-none-eabi/include/c++/10.2.1/bits/basic_string.h ****        *  @param  __str  Source string.
 458:/home/luca/DaisySeedDeveloper/gcc-arm-none-eabi-10-2020-q4-major/arm-none-eabi/include/c++/10.2.1/bits/basic_string.h ****        *  @param  __pos  Index of first character to copy from.
 459:/home/luca/DaisySeedDeveloper/gcc-arm-none-eabi-10-2020-q4-major/arm-none-eabi/include/c++/10.2.1/bits/basic_string.h ****        *  @param  __a  Allocator to use.
 460:/home/luca/DaisySeedDeveloper/gcc-arm-none-eabi-10-2020-q4-major/arm-none-eabi/include/c++/10.2.1/bits/basic_string.h ****        */
 461:/home/luca/DaisySeedDeveloper/gcc-arm-none-eabi-10-2020-q4-major/arm-none-eabi/include/c++/10.2.1/bits/basic_string.h ****       basic_string(const basic_string& __str, size_type __pos,
 462:/home/luca/DaisySeedDeveloper/gcc-arm-none-eabi-10-2020-q4-major/arm-none-eabi/include/c++/10.2.1/bits/basic_string.h **** 		   const _Alloc& __a = _Alloc())
 463:/home/luca/DaisySeedDeveloper/gcc-arm-none-eabi-10-2020-q4-major/arm-none-eabi/include/c++/10.2.1/bits/basic_string.h ****       : _M_dataplus(_M_local_data(), __a)
 464:/home/luca/DaisySeedDeveloper/gcc-arm-none-eabi-10-2020-q4-major/arm-none-eabi/include/c++/10.2.1/bits/basic_string.h ****       {
 465:/home/luca/DaisySeedDeveloper/gcc-arm-none-eabi-10-2020-q4-major/arm-none-eabi/include/c++/10.2.1/bits/basic_string.h **** 	const _CharT* __start = __str._M_data()
 466:/home/luca/DaisySeedDeveloper/gcc-arm-none-eabi-10-2020-q4-major/arm-none-eabi/include/c++/10.2.1/bits/basic_string.h **** 	  + __str._M_check(__pos, "basic_string::basic_string");
 467:/home/luca/DaisySeedDeveloper/gcc-arm-none-eabi-10-2020-q4-major/arm-none-eabi/include/c++/10.2.1/bits/basic_string.h **** 	_M_construct(__start, __start + __str._M_limit(__pos, npos));
 468:/home/luca/DaisySeedDeveloper/gcc-arm-none-eabi-10-2020-q4-major/arm-none-eabi/include/c++/10.2.1/bits/basic_string.h ****       }
 469:/home/luca/DaisySeedDeveloper/gcc-arm-none-eabi-10-2020-q4-major/arm-none-eabi/include/c++/10.2.1/bits/basic_string.h **** 
 470:/home/luca/DaisySeedDeveloper/gcc-arm-none-eabi-10-2020-q4-major/arm-none-eabi/include/c++/10.2.1/bits/basic_string.h ****       /**
 471:/home/luca/DaisySeedDeveloper/gcc-arm-none-eabi-10-2020-q4-major/arm-none-eabi/include/c++/10.2.1/bits/basic_string.h ****        *  @brief  Construct string as copy of a substring.
 472:/home/luca/DaisySeedDeveloper/gcc-arm-none-eabi-10-2020-q4-major/arm-none-eabi/include/c++/10.2.1/bits/basic_string.h ****        *  @param  __str  Source string.
 473:/home/luca/DaisySeedDeveloper/gcc-arm-none-eabi-10-2020-q4-major/arm-none-eabi/include/c++/10.2.1/bits/basic_string.h ****        *  @param  __pos  Index of first character to copy from.
 474:/home/luca/DaisySeedDeveloper/gcc-arm-none-eabi-10-2020-q4-major/arm-none-eabi/include/c++/10.2.1/bits/basic_string.h ****        *  @param  __n  Number of characters to copy.
 475:/home/luca/DaisySeedDeveloper/gcc-arm-none-eabi-10-2020-q4-major/arm-none-eabi/include/c++/10.2.1/bits/basic_string.h ****        */
 476:/home/luca/DaisySeedDeveloper/gcc-arm-none-eabi-10-2020-q4-major/arm-none-eabi/include/c++/10.2.1/bits/basic_string.h ****       basic_string(const basic_string& __str, size_type __pos,
 477:/home/luca/DaisySeedDeveloper/gcc-arm-none-eabi-10-2020-q4-major/arm-none-eabi/include/c++/10.2.1/bits/basic_string.h **** 		   size_type __n)
 478:/home/luca/DaisySeedDeveloper/gcc-arm-none-eabi-10-2020-q4-major/arm-none-eabi/include/c++/10.2.1/bits/basic_string.h ****       : _M_dataplus(_M_local_data())
 479:/home/luca/DaisySeedDeveloper/gcc-arm-none-eabi-10-2020-q4-major/arm-none-eabi/include/c++/10.2.1/bits/basic_string.h ****       {
 480:/home/luca/DaisySeedDeveloper/gcc-arm-none-eabi-10-2020-q4-major/arm-none-eabi/include/c++/10.2.1/bits/basic_string.h **** 	const _CharT* __start = __str._M_data()
 481:/home/luca/DaisySeedDeveloper/gcc-arm-none-eabi-10-2020-q4-major/arm-none-eabi/include/c++/10.2.1/bits/basic_string.h **** 	  + __str._M_check(__pos, "basic_string::basic_string");
 482:/home/luca/DaisySeedDeveloper/gcc-arm-none-eabi-10-2020-q4-major/arm-none-eabi/include/c++/10.2.1/bits/basic_string.h **** 	_M_construct(__start, __start + __str._M_limit(__pos, __n));
 483:/home/luca/DaisySeedDeveloper/gcc-arm-none-eabi-10-2020-q4-major/arm-none-eabi/include/c++/10.2.1/bits/basic_string.h ****       }
 484:/home/luca/DaisySeedDeveloper/gcc-arm-none-eabi-10-2020-q4-major/arm-none-eabi/include/c++/10.2.1/bits/basic_string.h **** 
ARM GAS  /tmp/ccOjaarx.s 			page 31


 485:/home/luca/DaisySeedDeveloper/gcc-arm-none-eabi-10-2020-q4-major/arm-none-eabi/include/c++/10.2.1/bits/basic_string.h ****       /**
 486:/home/luca/DaisySeedDeveloper/gcc-arm-none-eabi-10-2020-q4-major/arm-none-eabi/include/c++/10.2.1/bits/basic_string.h ****        *  @brief  Construct string as copy of a substring.
 487:/home/luca/DaisySeedDeveloper/gcc-arm-none-eabi-10-2020-q4-major/arm-none-eabi/include/c++/10.2.1/bits/basic_string.h ****        *  @param  __str  Source string.
 488:/home/luca/DaisySeedDeveloper/gcc-arm-none-eabi-10-2020-q4-major/arm-none-eabi/include/c++/10.2.1/bits/basic_string.h ****        *  @param  __pos  Index of first character to copy from.
 489:/home/luca/DaisySeedDeveloper/gcc-arm-none-eabi-10-2020-q4-major/arm-none-eabi/include/c++/10.2.1/bits/basic_string.h ****        *  @param  __n  Number of characters to copy.
 490:/home/luca/DaisySeedDeveloper/gcc-arm-none-eabi-10-2020-q4-major/arm-none-eabi/include/c++/10.2.1/bits/basic_string.h ****        *  @param  __a  Allocator to use.
 491:/home/luca/DaisySeedDeveloper/gcc-arm-none-eabi-10-2020-q4-major/arm-none-eabi/include/c++/10.2.1/bits/basic_string.h ****        */
 492:/home/luca/DaisySeedDeveloper/gcc-arm-none-eabi-10-2020-q4-major/arm-none-eabi/include/c++/10.2.1/bits/basic_string.h ****       basic_string(const basic_string& __str, size_type __pos,
 493:/home/luca/DaisySeedDeveloper/gcc-arm-none-eabi-10-2020-q4-major/arm-none-eabi/include/c++/10.2.1/bits/basic_string.h **** 		   size_type __n, const _Alloc& __a)
 494:/home/luca/DaisySeedDeveloper/gcc-arm-none-eabi-10-2020-q4-major/arm-none-eabi/include/c++/10.2.1/bits/basic_string.h ****       : _M_dataplus(_M_local_data(), __a)
 495:/home/luca/DaisySeedDeveloper/gcc-arm-none-eabi-10-2020-q4-major/arm-none-eabi/include/c++/10.2.1/bits/basic_string.h ****       {
 496:/home/luca/DaisySeedDeveloper/gcc-arm-none-eabi-10-2020-q4-major/arm-none-eabi/include/c++/10.2.1/bits/basic_string.h **** 	const _CharT* __start
 497:/home/luca/DaisySeedDeveloper/gcc-arm-none-eabi-10-2020-q4-major/arm-none-eabi/include/c++/10.2.1/bits/basic_string.h **** 	  = __str._M_data() + __str._M_check(__pos, "string::string");
 498:/home/luca/DaisySeedDeveloper/gcc-arm-none-eabi-10-2020-q4-major/arm-none-eabi/include/c++/10.2.1/bits/basic_string.h **** 	_M_construct(__start, __start + __str._M_limit(__pos, __n));
 499:/home/luca/DaisySeedDeveloper/gcc-arm-none-eabi-10-2020-q4-major/arm-none-eabi/include/c++/10.2.1/bits/basic_string.h ****       }
 500:/home/luca/DaisySeedDeveloper/gcc-arm-none-eabi-10-2020-q4-major/arm-none-eabi/include/c++/10.2.1/bits/basic_string.h **** 
 501:/home/luca/DaisySeedDeveloper/gcc-arm-none-eabi-10-2020-q4-major/arm-none-eabi/include/c++/10.2.1/bits/basic_string.h ****       /**
 502:/home/luca/DaisySeedDeveloper/gcc-arm-none-eabi-10-2020-q4-major/arm-none-eabi/include/c++/10.2.1/bits/basic_string.h ****        *  @brief  Construct string initialized by a character %array.
 503:/home/luca/DaisySeedDeveloper/gcc-arm-none-eabi-10-2020-q4-major/arm-none-eabi/include/c++/10.2.1/bits/basic_string.h ****        *  @param  __s  Source character %array.
 504:/home/luca/DaisySeedDeveloper/gcc-arm-none-eabi-10-2020-q4-major/arm-none-eabi/include/c++/10.2.1/bits/basic_string.h ****        *  @param  __n  Number of characters to copy.
 505:/home/luca/DaisySeedDeveloper/gcc-arm-none-eabi-10-2020-q4-major/arm-none-eabi/include/c++/10.2.1/bits/basic_string.h ****        *  @param  __a  Allocator to use (default is default allocator).
 506:/home/luca/DaisySeedDeveloper/gcc-arm-none-eabi-10-2020-q4-major/arm-none-eabi/include/c++/10.2.1/bits/basic_string.h ****        *
 507:/home/luca/DaisySeedDeveloper/gcc-arm-none-eabi-10-2020-q4-major/arm-none-eabi/include/c++/10.2.1/bits/basic_string.h ****        *  NB: @a __s must have at least @a __n characters, &apos;\\0&apos;
 508:/home/luca/DaisySeedDeveloper/gcc-arm-none-eabi-10-2020-q4-major/arm-none-eabi/include/c++/10.2.1/bits/basic_string.h ****        *  has no special meaning.
 509:/home/luca/DaisySeedDeveloper/gcc-arm-none-eabi-10-2020-q4-major/arm-none-eabi/include/c++/10.2.1/bits/basic_string.h ****        */
 510:/home/luca/DaisySeedDeveloper/gcc-arm-none-eabi-10-2020-q4-major/arm-none-eabi/include/c++/10.2.1/bits/basic_string.h ****       basic_string(const _CharT* __s, size_type __n,
 511:/home/luca/DaisySeedDeveloper/gcc-arm-none-eabi-10-2020-q4-major/arm-none-eabi/include/c++/10.2.1/bits/basic_string.h **** 		   const _Alloc& __a = _Alloc())
 512:/home/luca/DaisySeedDeveloper/gcc-arm-none-eabi-10-2020-q4-major/arm-none-eabi/include/c++/10.2.1/bits/basic_string.h ****       : _M_dataplus(_M_local_data(), __a)
 513:/home/luca/DaisySeedDeveloper/gcc-arm-none-eabi-10-2020-q4-major/arm-none-eabi/include/c++/10.2.1/bits/basic_string.h ****       { _M_construct(__s, __s + __n); }
 514:/home/luca/DaisySeedDeveloper/gcc-arm-none-eabi-10-2020-q4-major/arm-none-eabi/include/c++/10.2.1/bits/basic_string.h **** 
 515:/home/luca/DaisySeedDeveloper/gcc-arm-none-eabi-10-2020-q4-major/arm-none-eabi/include/c++/10.2.1/bits/basic_string.h ****       /**
 516:/home/luca/DaisySeedDeveloper/gcc-arm-none-eabi-10-2020-q4-major/arm-none-eabi/include/c++/10.2.1/bits/basic_string.h ****        *  @brief  Construct string as copy of a C string.
 517:/home/luca/DaisySeedDeveloper/gcc-arm-none-eabi-10-2020-q4-major/arm-none-eabi/include/c++/10.2.1/bits/basic_string.h ****        *  @param  __s  Source C string.
 518:/home/luca/DaisySeedDeveloper/gcc-arm-none-eabi-10-2020-q4-major/arm-none-eabi/include/c++/10.2.1/bits/basic_string.h ****        *  @param  __a  Allocator to use (default is default allocator).
 519:/home/luca/DaisySeedDeveloper/gcc-arm-none-eabi-10-2020-q4-major/arm-none-eabi/include/c++/10.2.1/bits/basic_string.h ****        */
 520:/home/luca/DaisySeedDeveloper/gcc-arm-none-eabi-10-2020-q4-major/arm-none-eabi/include/c++/10.2.1/bits/basic_string.h **** #if __cpp_deduction_guides && ! defined _GLIBCXX_DEFINING_STRING_INSTANTIATIONS
 521:/home/luca/DaisySeedDeveloper/gcc-arm-none-eabi-10-2020-q4-major/arm-none-eabi/include/c++/10.2.1/bits/basic_string.h ****       // _GLIBCXX_RESOLVE_LIB_DEFECTS
 522:/home/luca/DaisySeedDeveloper/gcc-arm-none-eabi-10-2020-q4-major/arm-none-eabi/include/c++/10.2.1/bits/basic_string.h ****       // 3076. basic_string CTAD ambiguity
 523:/home/luca/DaisySeedDeveloper/gcc-arm-none-eabi-10-2020-q4-major/arm-none-eabi/include/c++/10.2.1/bits/basic_string.h ****       template<typename = _RequireAllocator<_Alloc>>
 524:/home/luca/DaisySeedDeveloper/gcc-arm-none-eabi-10-2020-q4-major/arm-none-eabi/include/c++/10.2.1/bits/basic_string.h **** #endif
 525:/home/luca/DaisySeedDeveloper/gcc-arm-none-eabi-10-2020-q4-major/arm-none-eabi/include/c++/10.2.1/bits/basic_string.h ****       basic_string(const _CharT* __s, const _Alloc& __a = _Alloc())
 627              		.loc 11 525 7 is_stmt 1 view -0
 628              		.cfi_startproc
 629              		@ args = 0, pretend = 0, frame = 8
 630              		@ frame_needed = 0, uses_anonymous_args = 0
 631              	.LBB490:
 632              	.LBB491:
 633              	.LBI491:
 190:/home/luca/DaisySeedDeveloper/gcc-arm-none-eabi-10-2020-q4-major/arm-none-eabi/include/c++/10.2.1/bits/basic_string.h ****       {
 634              		.loc 11 190 7 view .LVU134
 190:/home/luca/DaisySeedDeveloper/gcc-arm-none-eabi-10-2020-q4-major/arm-none-eabi/include/c++/10.2.1/bits/basic_string.h ****       {
 635              		.loc 11 190 7 is_stmt 0 view .LVU135
 636              	.LBE491:
 637              	.LBB493:
 638              	.LBI493:
 156:/home/luca/DaisySeedDeveloper/gcc-arm-none-eabi-10-2020-q4-major/arm-none-eabi/include/c++/10.2.1/bits/basic_string.h **** 	: allocator_type(__a), _M_p(__dat) { }
 639              		.loc 11 156 2 is_stmt 1 view .LVU136
ARM GAS  /tmp/ccOjaarx.s 			page 32


 640              	.LBB494:
 641              	.LBB495:
 642              	.LBI495:
 643              		.file 12 "/home/luca/DaisySeedDeveloper/gcc-arm-none-eabi-10-2020-q4-major/arm-none-eabi/include/c
   1:/home/luca/DaisySeedDeveloper/gcc-arm-none-eabi-10-2020-q4-major/arm-none-eabi/include/c++/10.2.1/bits/allocator.h **** // Allocators -*- C++ -*-
   2:/home/luca/DaisySeedDeveloper/gcc-arm-none-eabi-10-2020-q4-major/arm-none-eabi/include/c++/10.2.1/bits/allocator.h **** 
   3:/home/luca/DaisySeedDeveloper/gcc-arm-none-eabi-10-2020-q4-major/arm-none-eabi/include/c++/10.2.1/bits/allocator.h **** // Copyright (C) 2001-2020 Free Software Foundation, Inc.
   4:/home/luca/DaisySeedDeveloper/gcc-arm-none-eabi-10-2020-q4-major/arm-none-eabi/include/c++/10.2.1/bits/allocator.h **** //
   5:/home/luca/DaisySeedDeveloper/gcc-arm-none-eabi-10-2020-q4-major/arm-none-eabi/include/c++/10.2.1/bits/allocator.h **** // This file is part of the GNU ISO C++ Library.  This library is free
   6:/home/luca/DaisySeedDeveloper/gcc-arm-none-eabi-10-2020-q4-major/arm-none-eabi/include/c++/10.2.1/bits/allocator.h **** // software; you can redistribute it and/or modify it under the
   7:/home/luca/DaisySeedDeveloper/gcc-arm-none-eabi-10-2020-q4-major/arm-none-eabi/include/c++/10.2.1/bits/allocator.h **** // terms of the GNU General Public License as published by the
   8:/home/luca/DaisySeedDeveloper/gcc-arm-none-eabi-10-2020-q4-major/arm-none-eabi/include/c++/10.2.1/bits/allocator.h **** // Free Software Foundation; either version 3, or (at your option)
   9:/home/luca/DaisySeedDeveloper/gcc-arm-none-eabi-10-2020-q4-major/arm-none-eabi/include/c++/10.2.1/bits/allocator.h **** // any later version.
  10:/home/luca/DaisySeedDeveloper/gcc-arm-none-eabi-10-2020-q4-major/arm-none-eabi/include/c++/10.2.1/bits/allocator.h **** 
  11:/home/luca/DaisySeedDeveloper/gcc-arm-none-eabi-10-2020-q4-major/arm-none-eabi/include/c++/10.2.1/bits/allocator.h **** // This library is distributed in the hope that it will be useful,
  12:/home/luca/DaisySeedDeveloper/gcc-arm-none-eabi-10-2020-q4-major/arm-none-eabi/include/c++/10.2.1/bits/allocator.h **** // but WITHOUT ANY WARRANTY; without even the implied warranty of
  13:/home/luca/DaisySeedDeveloper/gcc-arm-none-eabi-10-2020-q4-major/arm-none-eabi/include/c++/10.2.1/bits/allocator.h **** // MERCHANTABILITY or FITNESS FOR A PARTICULAR PURPOSE.  See the
  14:/home/luca/DaisySeedDeveloper/gcc-arm-none-eabi-10-2020-q4-major/arm-none-eabi/include/c++/10.2.1/bits/allocator.h **** // GNU General Public License for more details.
  15:/home/luca/DaisySeedDeveloper/gcc-arm-none-eabi-10-2020-q4-major/arm-none-eabi/include/c++/10.2.1/bits/allocator.h **** 
  16:/home/luca/DaisySeedDeveloper/gcc-arm-none-eabi-10-2020-q4-major/arm-none-eabi/include/c++/10.2.1/bits/allocator.h **** // Under Section 7 of GPL version 3, you are granted additional
  17:/home/luca/DaisySeedDeveloper/gcc-arm-none-eabi-10-2020-q4-major/arm-none-eabi/include/c++/10.2.1/bits/allocator.h **** // permissions described in the GCC Runtime Library Exception, version
  18:/home/luca/DaisySeedDeveloper/gcc-arm-none-eabi-10-2020-q4-major/arm-none-eabi/include/c++/10.2.1/bits/allocator.h **** // 3.1, as published by the Free Software Foundation.
  19:/home/luca/DaisySeedDeveloper/gcc-arm-none-eabi-10-2020-q4-major/arm-none-eabi/include/c++/10.2.1/bits/allocator.h **** 
  20:/home/luca/DaisySeedDeveloper/gcc-arm-none-eabi-10-2020-q4-major/arm-none-eabi/include/c++/10.2.1/bits/allocator.h **** // You should have received a copy of the GNU General Public License and
  21:/home/luca/DaisySeedDeveloper/gcc-arm-none-eabi-10-2020-q4-major/arm-none-eabi/include/c++/10.2.1/bits/allocator.h **** // a copy of the GCC Runtime Library Exception along with this program;
  22:/home/luca/DaisySeedDeveloper/gcc-arm-none-eabi-10-2020-q4-major/arm-none-eabi/include/c++/10.2.1/bits/allocator.h **** // see the files COPYING3 and COPYING.RUNTIME respectively.  If not, see
  23:/home/luca/DaisySeedDeveloper/gcc-arm-none-eabi-10-2020-q4-major/arm-none-eabi/include/c++/10.2.1/bits/allocator.h **** // <http://www.gnu.org/licenses/>.
  24:/home/luca/DaisySeedDeveloper/gcc-arm-none-eabi-10-2020-q4-major/arm-none-eabi/include/c++/10.2.1/bits/allocator.h **** 
  25:/home/luca/DaisySeedDeveloper/gcc-arm-none-eabi-10-2020-q4-major/arm-none-eabi/include/c++/10.2.1/bits/allocator.h **** /*
  26:/home/luca/DaisySeedDeveloper/gcc-arm-none-eabi-10-2020-q4-major/arm-none-eabi/include/c++/10.2.1/bits/allocator.h ****  * Copyright (c) 1996-1997
  27:/home/luca/DaisySeedDeveloper/gcc-arm-none-eabi-10-2020-q4-major/arm-none-eabi/include/c++/10.2.1/bits/allocator.h ****  * Silicon Graphics Computer Systems, Inc.
  28:/home/luca/DaisySeedDeveloper/gcc-arm-none-eabi-10-2020-q4-major/arm-none-eabi/include/c++/10.2.1/bits/allocator.h ****  *
  29:/home/luca/DaisySeedDeveloper/gcc-arm-none-eabi-10-2020-q4-major/arm-none-eabi/include/c++/10.2.1/bits/allocator.h ****  * Permission to use, copy, modify, distribute and sell this software
  30:/home/luca/DaisySeedDeveloper/gcc-arm-none-eabi-10-2020-q4-major/arm-none-eabi/include/c++/10.2.1/bits/allocator.h ****  * and its documentation for any purpose is hereby granted without fee,
  31:/home/luca/DaisySeedDeveloper/gcc-arm-none-eabi-10-2020-q4-major/arm-none-eabi/include/c++/10.2.1/bits/allocator.h ****  * provided that the above copyright notice appear in all copies and
  32:/home/luca/DaisySeedDeveloper/gcc-arm-none-eabi-10-2020-q4-major/arm-none-eabi/include/c++/10.2.1/bits/allocator.h ****  * that both that copyright notice and this permission notice appear
  33:/home/luca/DaisySeedDeveloper/gcc-arm-none-eabi-10-2020-q4-major/arm-none-eabi/include/c++/10.2.1/bits/allocator.h ****  * in supporting documentation.  Silicon Graphics makes no
  34:/home/luca/DaisySeedDeveloper/gcc-arm-none-eabi-10-2020-q4-major/arm-none-eabi/include/c++/10.2.1/bits/allocator.h ****  * representations about the suitability of this software for any
  35:/home/luca/DaisySeedDeveloper/gcc-arm-none-eabi-10-2020-q4-major/arm-none-eabi/include/c++/10.2.1/bits/allocator.h ****  * purpose.  It is provided "as is" without express or implied warranty.
  36:/home/luca/DaisySeedDeveloper/gcc-arm-none-eabi-10-2020-q4-major/arm-none-eabi/include/c++/10.2.1/bits/allocator.h ****  */
  37:/home/luca/DaisySeedDeveloper/gcc-arm-none-eabi-10-2020-q4-major/arm-none-eabi/include/c++/10.2.1/bits/allocator.h **** 
  38:/home/luca/DaisySeedDeveloper/gcc-arm-none-eabi-10-2020-q4-major/arm-none-eabi/include/c++/10.2.1/bits/allocator.h **** /** @file bits/allocator.h
  39:/home/luca/DaisySeedDeveloper/gcc-arm-none-eabi-10-2020-q4-major/arm-none-eabi/include/c++/10.2.1/bits/allocator.h ****  *  This is an internal header file, included by other library headers.
  40:/home/luca/DaisySeedDeveloper/gcc-arm-none-eabi-10-2020-q4-major/arm-none-eabi/include/c++/10.2.1/bits/allocator.h ****  *  Do not attempt to use it directly. @headername{memory}
  41:/home/luca/DaisySeedDeveloper/gcc-arm-none-eabi-10-2020-q4-major/arm-none-eabi/include/c++/10.2.1/bits/allocator.h ****  */
  42:/home/luca/DaisySeedDeveloper/gcc-arm-none-eabi-10-2020-q4-major/arm-none-eabi/include/c++/10.2.1/bits/allocator.h **** 
  43:/home/luca/DaisySeedDeveloper/gcc-arm-none-eabi-10-2020-q4-major/arm-none-eabi/include/c++/10.2.1/bits/allocator.h **** #ifndef _ALLOCATOR_H
  44:/home/luca/DaisySeedDeveloper/gcc-arm-none-eabi-10-2020-q4-major/arm-none-eabi/include/c++/10.2.1/bits/allocator.h **** #define _ALLOCATOR_H 1
  45:/home/luca/DaisySeedDeveloper/gcc-arm-none-eabi-10-2020-q4-major/arm-none-eabi/include/c++/10.2.1/bits/allocator.h **** 
  46:/home/luca/DaisySeedDeveloper/gcc-arm-none-eabi-10-2020-q4-major/arm-none-eabi/include/c++/10.2.1/bits/allocator.h **** #include <bits/c++allocator.h> // Define the base class to std::allocator.
  47:/home/luca/DaisySeedDeveloper/gcc-arm-none-eabi-10-2020-q4-major/arm-none-eabi/include/c++/10.2.1/bits/allocator.h **** #include <bits/memoryfwd.h>
  48:/home/luca/DaisySeedDeveloper/gcc-arm-none-eabi-10-2020-q4-major/arm-none-eabi/include/c++/10.2.1/bits/allocator.h **** #if __cplusplus >= 201103L
  49:/home/luca/DaisySeedDeveloper/gcc-arm-none-eabi-10-2020-q4-major/arm-none-eabi/include/c++/10.2.1/bits/allocator.h **** #include <type_traits>
  50:/home/luca/DaisySeedDeveloper/gcc-arm-none-eabi-10-2020-q4-major/arm-none-eabi/include/c++/10.2.1/bits/allocator.h **** #endif
  51:/home/luca/DaisySeedDeveloper/gcc-arm-none-eabi-10-2020-q4-major/arm-none-eabi/include/c++/10.2.1/bits/allocator.h **** 
  52:/home/luca/DaisySeedDeveloper/gcc-arm-none-eabi-10-2020-q4-major/arm-none-eabi/include/c++/10.2.1/bits/allocator.h **** #define __cpp_lib_incomplete_container_elements 201505
  53:/home/luca/DaisySeedDeveloper/gcc-arm-none-eabi-10-2020-q4-major/arm-none-eabi/include/c++/10.2.1/bits/allocator.h **** 
ARM GAS  /tmp/ccOjaarx.s 			page 33


  54:/home/luca/DaisySeedDeveloper/gcc-arm-none-eabi-10-2020-q4-major/arm-none-eabi/include/c++/10.2.1/bits/allocator.h **** namespace std _GLIBCXX_VISIBILITY(default)
  55:/home/luca/DaisySeedDeveloper/gcc-arm-none-eabi-10-2020-q4-major/arm-none-eabi/include/c++/10.2.1/bits/allocator.h **** {
  56:/home/luca/DaisySeedDeveloper/gcc-arm-none-eabi-10-2020-q4-major/arm-none-eabi/include/c++/10.2.1/bits/allocator.h **** _GLIBCXX_BEGIN_NAMESPACE_VERSION
  57:/home/luca/DaisySeedDeveloper/gcc-arm-none-eabi-10-2020-q4-major/arm-none-eabi/include/c++/10.2.1/bits/allocator.h **** 
  58:/home/luca/DaisySeedDeveloper/gcc-arm-none-eabi-10-2020-q4-major/arm-none-eabi/include/c++/10.2.1/bits/allocator.h ****   /**
  59:/home/luca/DaisySeedDeveloper/gcc-arm-none-eabi-10-2020-q4-major/arm-none-eabi/include/c++/10.2.1/bits/allocator.h ****    *  @addtogroup allocators
  60:/home/luca/DaisySeedDeveloper/gcc-arm-none-eabi-10-2020-q4-major/arm-none-eabi/include/c++/10.2.1/bits/allocator.h ****    *  @{
  61:/home/luca/DaisySeedDeveloper/gcc-arm-none-eabi-10-2020-q4-major/arm-none-eabi/include/c++/10.2.1/bits/allocator.h ****    */
  62:/home/luca/DaisySeedDeveloper/gcc-arm-none-eabi-10-2020-q4-major/arm-none-eabi/include/c++/10.2.1/bits/allocator.h **** 
  63:/home/luca/DaisySeedDeveloper/gcc-arm-none-eabi-10-2020-q4-major/arm-none-eabi/include/c++/10.2.1/bits/allocator.h ****   /// allocator<void> specialization.
  64:/home/luca/DaisySeedDeveloper/gcc-arm-none-eabi-10-2020-q4-major/arm-none-eabi/include/c++/10.2.1/bits/allocator.h ****   template<>
  65:/home/luca/DaisySeedDeveloper/gcc-arm-none-eabi-10-2020-q4-major/arm-none-eabi/include/c++/10.2.1/bits/allocator.h ****     class allocator<void>
  66:/home/luca/DaisySeedDeveloper/gcc-arm-none-eabi-10-2020-q4-major/arm-none-eabi/include/c++/10.2.1/bits/allocator.h ****     {
  67:/home/luca/DaisySeedDeveloper/gcc-arm-none-eabi-10-2020-q4-major/arm-none-eabi/include/c++/10.2.1/bits/allocator.h ****     public:
  68:/home/luca/DaisySeedDeveloper/gcc-arm-none-eabi-10-2020-q4-major/arm-none-eabi/include/c++/10.2.1/bits/allocator.h ****       typedef void        value_type;
  69:/home/luca/DaisySeedDeveloper/gcc-arm-none-eabi-10-2020-q4-major/arm-none-eabi/include/c++/10.2.1/bits/allocator.h ****       typedef size_t      size_type;
  70:/home/luca/DaisySeedDeveloper/gcc-arm-none-eabi-10-2020-q4-major/arm-none-eabi/include/c++/10.2.1/bits/allocator.h ****       typedef ptrdiff_t   difference_type;
  71:/home/luca/DaisySeedDeveloper/gcc-arm-none-eabi-10-2020-q4-major/arm-none-eabi/include/c++/10.2.1/bits/allocator.h **** #if __cplusplus <= 201703L
  72:/home/luca/DaisySeedDeveloper/gcc-arm-none-eabi-10-2020-q4-major/arm-none-eabi/include/c++/10.2.1/bits/allocator.h ****       typedef void*       pointer;
  73:/home/luca/DaisySeedDeveloper/gcc-arm-none-eabi-10-2020-q4-major/arm-none-eabi/include/c++/10.2.1/bits/allocator.h ****       typedef const void* const_pointer;
  74:/home/luca/DaisySeedDeveloper/gcc-arm-none-eabi-10-2020-q4-major/arm-none-eabi/include/c++/10.2.1/bits/allocator.h **** 
  75:/home/luca/DaisySeedDeveloper/gcc-arm-none-eabi-10-2020-q4-major/arm-none-eabi/include/c++/10.2.1/bits/allocator.h ****       template<typename _Tp1>
  76:/home/luca/DaisySeedDeveloper/gcc-arm-none-eabi-10-2020-q4-major/arm-none-eabi/include/c++/10.2.1/bits/allocator.h **** 	struct rebind
  77:/home/luca/DaisySeedDeveloper/gcc-arm-none-eabi-10-2020-q4-major/arm-none-eabi/include/c++/10.2.1/bits/allocator.h **** 	{ typedef allocator<_Tp1> other; };
  78:/home/luca/DaisySeedDeveloper/gcc-arm-none-eabi-10-2020-q4-major/arm-none-eabi/include/c++/10.2.1/bits/allocator.h **** #else
  79:/home/luca/DaisySeedDeveloper/gcc-arm-none-eabi-10-2020-q4-major/arm-none-eabi/include/c++/10.2.1/bits/allocator.h ****       allocator() = default;
  80:/home/luca/DaisySeedDeveloper/gcc-arm-none-eabi-10-2020-q4-major/arm-none-eabi/include/c++/10.2.1/bits/allocator.h **** 
  81:/home/luca/DaisySeedDeveloper/gcc-arm-none-eabi-10-2020-q4-major/arm-none-eabi/include/c++/10.2.1/bits/allocator.h ****       template<typename _Up>
  82:/home/luca/DaisySeedDeveloper/gcc-arm-none-eabi-10-2020-q4-major/arm-none-eabi/include/c++/10.2.1/bits/allocator.h **** 	constexpr
  83:/home/luca/DaisySeedDeveloper/gcc-arm-none-eabi-10-2020-q4-major/arm-none-eabi/include/c++/10.2.1/bits/allocator.h **** 	allocator(const allocator<_Up>&) { }
  84:/home/luca/DaisySeedDeveloper/gcc-arm-none-eabi-10-2020-q4-major/arm-none-eabi/include/c++/10.2.1/bits/allocator.h **** #endif // ! C++20
  85:/home/luca/DaisySeedDeveloper/gcc-arm-none-eabi-10-2020-q4-major/arm-none-eabi/include/c++/10.2.1/bits/allocator.h **** 
  86:/home/luca/DaisySeedDeveloper/gcc-arm-none-eabi-10-2020-q4-major/arm-none-eabi/include/c++/10.2.1/bits/allocator.h **** #if __cplusplus >= 201103L && __cplusplus <= 201703L
  87:/home/luca/DaisySeedDeveloper/gcc-arm-none-eabi-10-2020-q4-major/arm-none-eabi/include/c++/10.2.1/bits/allocator.h ****       // _GLIBCXX_RESOLVE_LIB_DEFECTS
  88:/home/luca/DaisySeedDeveloper/gcc-arm-none-eabi-10-2020-q4-major/arm-none-eabi/include/c++/10.2.1/bits/allocator.h ****       // 2103. std::allocator propagate_on_container_move_assignment
  89:/home/luca/DaisySeedDeveloper/gcc-arm-none-eabi-10-2020-q4-major/arm-none-eabi/include/c++/10.2.1/bits/allocator.h ****       typedef true_type propagate_on_container_move_assignment;
  90:/home/luca/DaisySeedDeveloper/gcc-arm-none-eabi-10-2020-q4-major/arm-none-eabi/include/c++/10.2.1/bits/allocator.h **** 
  91:/home/luca/DaisySeedDeveloper/gcc-arm-none-eabi-10-2020-q4-major/arm-none-eabi/include/c++/10.2.1/bits/allocator.h ****       typedef true_type is_always_equal;
  92:/home/luca/DaisySeedDeveloper/gcc-arm-none-eabi-10-2020-q4-major/arm-none-eabi/include/c++/10.2.1/bits/allocator.h **** 
  93:/home/luca/DaisySeedDeveloper/gcc-arm-none-eabi-10-2020-q4-major/arm-none-eabi/include/c++/10.2.1/bits/allocator.h ****       template<typename _Up, typename... _Args>
  94:/home/luca/DaisySeedDeveloper/gcc-arm-none-eabi-10-2020-q4-major/arm-none-eabi/include/c++/10.2.1/bits/allocator.h **** 	void
  95:/home/luca/DaisySeedDeveloper/gcc-arm-none-eabi-10-2020-q4-major/arm-none-eabi/include/c++/10.2.1/bits/allocator.h **** 	construct(_Up* __p, _Args&&... __args)
  96:/home/luca/DaisySeedDeveloper/gcc-arm-none-eabi-10-2020-q4-major/arm-none-eabi/include/c++/10.2.1/bits/allocator.h **** 	noexcept(std::is_nothrow_constructible<_Up, _Args...>::value)
  97:/home/luca/DaisySeedDeveloper/gcc-arm-none-eabi-10-2020-q4-major/arm-none-eabi/include/c++/10.2.1/bits/allocator.h **** 	{ ::new((void *)__p) _Up(std::forward<_Args>(__args)...); }
  98:/home/luca/DaisySeedDeveloper/gcc-arm-none-eabi-10-2020-q4-major/arm-none-eabi/include/c++/10.2.1/bits/allocator.h **** 
  99:/home/luca/DaisySeedDeveloper/gcc-arm-none-eabi-10-2020-q4-major/arm-none-eabi/include/c++/10.2.1/bits/allocator.h ****       template<typename _Up>
 100:/home/luca/DaisySeedDeveloper/gcc-arm-none-eabi-10-2020-q4-major/arm-none-eabi/include/c++/10.2.1/bits/allocator.h **** 	void
 101:/home/luca/DaisySeedDeveloper/gcc-arm-none-eabi-10-2020-q4-major/arm-none-eabi/include/c++/10.2.1/bits/allocator.h **** 	destroy(_Up* __p)
 102:/home/luca/DaisySeedDeveloper/gcc-arm-none-eabi-10-2020-q4-major/arm-none-eabi/include/c++/10.2.1/bits/allocator.h **** 	noexcept(std::is_nothrow_destructible<_Up>::value)
 103:/home/luca/DaisySeedDeveloper/gcc-arm-none-eabi-10-2020-q4-major/arm-none-eabi/include/c++/10.2.1/bits/allocator.h **** 	{ __p->~_Up(); }
 104:/home/luca/DaisySeedDeveloper/gcc-arm-none-eabi-10-2020-q4-major/arm-none-eabi/include/c++/10.2.1/bits/allocator.h **** #endif // C++11 to C++17
 105:/home/luca/DaisySeedDeveloper/gcc-arm-none-eabi-10-2020-q4-major/arm-none-eabi/include/c++/10.2.1/bits/allocator.h ****     };
 106:/home/luca/DaisySeedDeveloper/gcc-arm-none-eabi-10-2020-q4-major/arm-none-eabi/include/c++/10.2.1/bits/allocator.h **** 
 107:/home/luca/DaisySeedDeveloper/gcc-arm-none-eabi-10-2020-q4-major/arm-none-eabi/include/c++/10.2.1/bits/allocator.h ****   /**
 108:/home/luca/DaisySeedDeveloper/gcc-arm-none-eabi-10-2020-q4-major/arm-none-eabi/include/c++/10.2.1/bits/allocator.h ****    * @brief  The @a standard allocator, as per [20.4].
 109:/home/luca/DaisySeedDeveloper/gcc-arm-none-eabi-10-2020-q4-major/arm-none-eabi/include/c++/10.2.1/bits/allocator.h ****    *
 110:/home/luca/DaisySeedDeveloper/gcc-arm-none-eabi-10-2020-q4-major/arm-none-eabi/include/c++/10.2.1/bits/allocator.h ****    *  See https://gcc.gnu.org/onlinedocs/libstdc++/manual/memory.html#std.util.memory.allocator
ARM GAS  /tmp/ccOjaarx.s 			page 34


 111:/home/luca/DaisySeedDeveloper/gcc-arm-none-eabi-10-2020-q4-major/arm-none-eabi/include/c++/10.2.1/bits/allocator.h ****    *  for further details.
 112:/home/luca/DaisySeedDeveloper/gcc-arm-none-eabi-10-2020-q4-major/arm-none-eabi/include/c++/10.2.1/bits/allocator.h ****    *
 113:/home/luca/DaisySeedDeveloper/gcc-arm-none-eabi-10-2020-q4-major/arm-none-eabi/include/c++/10.2.1/bits/allocator.h ****    *  @tparam  _Tp  Type of allocated object.
 114:/home/luca/DaisySeedDeveloper/gcc-arm-none-eabi-10-2020-q4-major/arm-none-eabi/include/c++/10.2.1/bits/allocator.h ****    */
 115:/home/luca/DaisySeedDeveloper/gcc-arm-none-eabi-10-2020-q4-major/arm-none-eabi/include/c++/10.2.1/bits/allocator.h ****   template<typename _Tp>
 116:/home/luca/DaisySeedDeveloper/gcc-arm-none-eabi-10-2020-q4-major/arm-none-eabi/include/c++/10.2.1/bits/allocator.h ****     class allocator : public __allocator_base<_Tp>
 117:/home/luca/DaisySeedDeveloper/gcc-arm-none-eabi-10-2020-q4-major/arm-none-eabi/include/c++/10.2.1/bits/allocator.h ****     {
 118:/home/luca/DaisySeedDeveloper/gcc-arm-none-eabi-10-2020-q4-major/arm-none-eabi/include/c++/10.2.1/bits/allocator.h ****     public:
 119:/home/luca/DaisySeedDeveloper/gcc-arm-none-eabi-10-2020-q4-major/arm-none-eabi/include/c++/10.2.1/bits/allocator.h ****       typedef _Tp        value_type;
 120:/home/luca/DaisySeedDeveloper/gcc-arm-none-eabi-10-2020-q4-major/arm-none-eabi/include/c++/10.2.1/bits/allocator.h ****       typedef size_t     size_type;
 121:/home/luca/DaisySeedDeveloper/gcc-arm-none-eabi-10-2020-q4-major/arm-none-eabi/include/c++/10.2.1/bits/allocator.h ****       typedef ptrdiff_t  difference_type;
 122:/home/luca/DaisySeedDeveloper/gcc-arm-none-eabi-10-2020-q4-major/arm-none-eabi/include/c++/10.2.1/bits/allocator.h **** #if __cplusplus <= 201703L
 123:/home/luca/DaisySeedDeveloper/gcc-arm-none-eabi-10-2020-q4-major/arm-none-eabi/include/c++/10.2.1/bits/allocator.h ****       typedef _Tp*       pointer;
 124:/home/luca/DaisySeedDeveloper/gcc-arm-none-eabi-10-2020-q4-major/arm-none-eabi/include/c++/10.2.1/bits/allocator.h ****       typedef const _Tp* const_pointer;
 125:/home/luca/DaisySeedDeveloper/gcc-arm-none-eabi-10-2020-q4-major/arm-none-eabi/include/c++/10.2.1/bits/allocator.h ****       typedef _Tp&       reference;
 126:/home/luca/DaisySeedDeveloper/gcc-arm-none-eabi-10-2020-q4-major/arm-none-eabi/include/c++/10.2.1/bits/allocator.h ****       typedef const _Tp& const_reference;
 127:/home/luca/DaisySeedDeveloper/gcc-arm-none-eabi-10-2020-q4-major/arm-none-eabi/include/c++/10.2.1/bits/allocator.h **** 
 128:/home/luca/DaisySeedDeveloper/gcc-arm-none-eabi-10-2020-q4-major/arm-none-eabi/include/c++/10.2.1/bits/allocator.h ****       template<typename _Tp1>
 129:/home/luca/DaisySeedDeveloper/gcc-arm-none-eabi-10-2020-q4-major/arm-none-eabi/include/c++/10.2.1/bits/allocator.h **** 	struct rebind
 130:/home/luca/DaisySeedDeveloper/gcc-arm-none-eabi-10-2020-q4-major/arm-none-eabi/include/c++/10.2.1/bits/allocator.h **** 	{ typedef allocator<_Tp1> other; };
 131:/home/luca/DaisySeedDeveloper/gcc-arm-none-eabi-10-2020-q4-major/arm-none-eabi/include/c++/10.2.1/bits/allocator.h **** #endif
 132:/home/luca/DaisySeedDeveloper/gcc-arm-none-eabi-10-2020-q4-major/arm-none-eabi/include/c++/10.2.1/bits/allocator.h **** 
 133:/home/luca/DaisySeedDeveloper/gcc-arm-none-eabi-10-2020-q4-major/arm-none-eabi/include/c++/10.2.1/bits/allocator.h **** #if __cplusplus >= 201103L
 134:/home/luca/DaisySeedDeveloper/gcc-arm-none-eabi-10-2020-q4-major/arm-none-eabi/include/c++/10.2.1/bits/allocator.h ****       // _GLIBCXX_RESOLVE_LIB_DEFECTS
 135:/home/luca/DaisySeedDeveloper/gcc-arm-none-eabi-10-2020-q4-major/arm-none-eabi/include/c++/10.2.1/bits/allocator.h ****       // 2103. std::allocator propagate_on_container_move_assignment
 136:/home/luca/DaisySeedDeveloper/gcc-arm-none-eabi-10-2020-q4-major/arm-none-eabi/include/c++/10.2.1/bits/allocator.h ****       typedef true_type propagate_on_container_move_assignment;
 137:/home/luca/DaisySeedDeveloper/gcc-arm-none-eabi-10-2020-q4-major/arm-none-eabi/include/c++/10.2.1/bits/allocator.h **** 
 138:/home/luca/DaisySeedDeveloper/gcc-arm-none-eabi-10-2020-q4-major/arm-none-eabi/include/c++/10.2.1/bits/allocator.h ****       typedef true_type is_always_equal;
 139:/home/luca/DaisySeedDeveloper/gcc-arm-none-eabi-10-2020-q4-major/arm-none-eabi/include/c++/10.2.1/bits/allocator.h **** #endif
 140:/home/luca/DaisySeedDeveloper/gcc-arm-none-eabi-10-2020-q4-major/arm-none-eabi/include/c++/10.2.1/bits/allocator.h **** 
 141:/home/luca/DaisySeedDeveloper/gcc-arm-none-eabi-10-2020-q4-major/arm-none-eabi/include/c++/10.2.1/bits/allocator.h ****       // _GLIBCXX_RESOLVE_LIB_DEFECTS
 142:/home/luca/DaisySeedDeveloper/gcc-arm-none-eabi-10-2020-q4-major/arm-none-eabi/include/c++/10.2.1/bits/allocator.h ****       // 3035. std::allocator's constructors should be constexpr
 143:/home/luca/DaisySeedDeveloper/gcc-arm-none-eabi-10-2020-q4-major/arm-none-eabi/include/c++/10.2.1/bits/allocator.h ****       _GLIBCXX20_CONSTEXPR
 144:/home/luca/DaisySeedDeveloper/gcc-arm-none-eabi-10-2020-q4-major/arm-none-eabi/include/c++/10.2.1/bits/allocator.h ****       allocator() _GLIBCXX_NOTHROW { }
 145:/home/luca/DaisySeedDeveloper/gcc-arm-none-eabi-10-2020-q4-major/arm-none-eabi/include/c++/10.2.1/bits/allocator.h **** 
 146:/home/luca/DaisySeedDeveloper/gcc-arm-none-eabi-10-2020-q4-major/arm-none-eabi/include/c++/10.2.1/bits/allocator.h ****       _GLIBCXX20_CONSTEXPR
 147:/home/luca/DaisySeedDeveloper/gcc-arm-none-eabi-10-2020-q4-major/arm-none-eabi/include/c++/10.2.1/bits/allocator.h ****       allocator(const allocator& __a) _GLIBCXX_NOTHROW
 644              		.loc 12 147 7 view .LVU137
 645              	.LBB496:
 646              	.LBI496:
 647              		.file 13 "/home/luca/DaisySeedDeveloper/gcc-arm-none-eabi-10-2020-q4-major/arm-none-eabi/include/c
   1:/home/luca/DaisySeedDeveloper/gcc-arm-none-eabi-10-2020-q4-major/arm-none-eabi/include/c++/10.2.1/ext/new_allocator.h **** // Allocator that wraps operator new -*- C++ -*-
   2:/home/luca/DaisySeedDeveloper/gcc-arm-none-eabi-10-2020-q4-major/arm-none-eabi/include/c++/10.2.1/ext/new_allocator.h **** 
   3:/home/luca/DaisySeedDeveloper/gcc-arm-none-eabi-10-2020-q4-major/arm-none-eabi/include/c++/10.2.1/ext/new_allocator.h **** // Copyright (C) 2001-2020 Free Software Foundation, Inc.
   4:/home/luca/DaisySeedDeveloper/gcc-arm-none-eabi-10-2020-q4-major/arm-none-eabi/include/c++/10.2.1/ext/new_allocator.h **** //
   5:/home/luca/DaisySeedDeveloper/gcc-arm-none-eabi-10-2020-q4-major/arm-none-eabi/include/c++/10.2.1/ext/new_allocator.h **** // This file is part of the GNU ISO C++ Library.  This library is free
   6:/home/luca/DaisySeedDeveloper/gcc-arm-none-eabi-10-2020-q4-major/arm-none-eabi/include/c++/10.2.1/ext/new_allocator.h **** // software; you can redistribute it and/or modify it under the
   7:/home/luca/DaisySeedDeveloper/gcc-arm-none-eabi-10-2020-q4-major/arm-none-eabi/include/c++/10.2.1/ext/new_allocator.h **** // terms of the GNU General Public License as published by the
   8:/home/luca/DaisySeedDeveloper/gcc-arm-none-eabi-10-2020-q4-major/arm-none-eabi/include/c++/10.2.1/ext/new_allocator.h **** // Free Software Foundation; either version 3, or (at your option)
   9:/home/luca/DaisySeedDeveloper/gcc-arm-none-eabi-10-2020-q4-major/arm-none-eabi/include/c++/10.2.1/ext/new_allocator.h **** // any later version.
  10:/home/luca/DaisySeedDeveloper/gcc-arm-none-eabi-10-2020-q4-major/arm-none-eabi/include/c++/10.2.1/ext/new_allocator.h **** 
  11:/home/luca/DaisySeedDeveloper/gcc-arm-none-eabi-10-2020-q4-major/arm-none-eabi/include/c++/10.2.1/ext/new_allocator.h **** // This library is distributed in the hope that it will be useful,
  12:/home/luca/DaisySeedDeveloper/gcc-arm-none-eabi-10-2020-q4-major/arm-none-eabi/include/c++/10.2.1/ext/new_allocator.h **** // but WITHOUT ANY WARRANTY; without even the implied warranty of
  13:/home/luca/DaisySeedDeveloper/gcc-arm-none-eabi-10-2020-q4-major/arm-none-eabi/include/c++/10.2.1/ext/new_allocator.h **** // MERCHANTABILITY or FITNESS FOR A PARTICULAR PURPOSE.  See the
  14:/home/luca/DaisySeedDeveloper/gcc-arm-none-eabi-10-2020-q4-major/arm-none-eabi/include/c++/10.2.1/ext/new_allocator.h **** // GNU General Public License for more details.
  15:/home/luca/DaisySeedDeveloper/gcc-arm-none-eabi-10-2020-q4-major/arm-none-eabi/include/c++/10.2.1/ext/new_allocator.h **** 
  16:/home/luca/DaisySeedDeveloper/gcc-arm-none-eabi-10-2020-q4-major/arm-none-eabi/include/c++/10.2.1/ext/new_allocator.h **** // Under Section 7 of GPL version 3, you are granted additional
ARM GAS  /tmp/ccOjaarx.s 			page 35


  17:/home/luca/DaisySeedDeveloper/gcc-arm-none-eabi-10-2020-q4-major/arm-none-eabi/include/c++/10.2.1/ext/new_allocator.h **** // permissions described in the GCC Runtime Library Exception, version
  18:/home/luca/DaisySeedDeveloper/gcc-arm-none-eabi-10-2020-q4-major/arm-none-eabi/include/c++/10.2.1/ext/new_allocator.h **** // 3.1, as published by the Free Software Foundation.
  19:/home/luca/DaisySeedDeveloper/gcc-arm-none-eabi-10-2020-q4-major/arm-none-eabi/include/c++/10.2.1/ext/new_allocator.h **** 
  20:/home/luca/DaisySeedDeveloper/gcc-arm-none-eabi-10-2020-q4-major/arm-none-eabi/include/c++/10.2.1/ext/new_allocator.h **** // You should have received a copy of the GNU General Public License and
  21:/home/luca/DaisySeedDeveloper/gcc-arm-none-eabi-10-2020-q4-major/arm-none-eabi/include/c++/10.2.1/ext/new_allocator.h **** // a copy of the GCC Runtime Library Exception along with this program;
  22:/home/luca/DaisySeedDeveloper/gcc-arm-none-eabi-10-2020-q4-major/arm-none-eabi/include/c++/10.2.1/ext/new_allocator.h **** // see the files COPYING3 and COPYING.RUNTIME respectively.  If not, see
  23:/home/luca/DaisySeedDeveloper/gcc-arm-none-eabi-10-2020-q4-major/arm-none-eabi/include/c++/10.2.1/ext/new_allocator.h **** // <http://www.gnu.org/licenses/>.
  24:/home/luca/DaisySeedDeveloper/gcc-arm-none-eabi-10-2020-q4-major/arm-none-eabi/include/c++/10.2.1/ext/new_allocator.h **** 
  25:/home/luca/DaisySeedDeveloper/gcc-arm-none-eabi-10-2020-q4-major/arm-none-eabi/include/c++/10.2.1/ext/new_allocator.h **** /** @file ext/new_allocator.h
  26:/home/luca/DaisySeedDeveloper/gcc-arm-none-eabi-10-2020-q4-major/arm-none-eabi/include/c++/10.2.1/ext/new_allocator.h ****  *  This file is a GNU extension to the Standard C++ Library.
  27:/home/luca/DaisySeedDeveloper/gcc-arm-none-eabi-10-2020-q4-major/arm-none-eabi/include/c++/10.2.1/ext/new_allocator.h ****  */
  28:/home/luca/DaisySeedDeveloper/gcc-arm-none-eabi-10-2020-q4-major/arm-none-eabi/include/c++/10.2.1/ext/new_allocator.h **** 
  29:/home/luca/DaisySeedDeveloper/gcc-arm-none-eabi-10-2020-q4-major/arm-none-eabi/include/c++/10.2.1/ext/new_allocator.h **** #ifndef _NEW_ALLOCATOR_H
  30:/home/luca/DaisySeedDeveloper/gcc-arm-none-eabi-10-2020-q4-major/arm-none-eabi/include/c++/10.2.1/ext/new_allocator.h **** #define _NEW_ALLOCATOR_H 1
  31:/home/luca/DaisySeedDeveloper/gcc-arm-none-eabi-10-2020-q4-major/arm-none-eabi/include/c++/10.2.1/ext/new_allocator.h **** 
  32:/home/luca/DaisySeedDeveloper/gcc-arm-none-eabi-10-2020-q4-major/arm-none-eabi/include/c++/10.2.1/ext/new_allocator.h **** #include <bits/c++config.h>
  33:/home/luca/DaisySeedDeveloper/gcc-arm-none-eabi-10-2020-q4-major/arm-none-eabi/include/c++/10.2.1/ext/new_allocator.h **** #include <new>
  34:/home/luca/DaisySeedDeveloper/gcc-arm-none-eabi-10-2020-q4-major/arm-none-eabi/include/c++/10.2.1/ext/new_allocator.h **** #include <bits/functexcept.h>
  35:/home/luca/DaisySeedDeveloper/gcc-arm-none-eabi-10-2020-q4-major/arm-none-eabi/include/c++/10.2.1/ext/new_allocator.h **** #include <bits/move.h>
  36:/home/luca/DaisySeedDeveloper/gcc-arm-none-eabi-10-2020-q4-major/arm-none-eabi/include/c++/10.2.1/ext/new_allocator.h **** #if __cplusplus >= 201103L
  37:/home/luca/DaisySeedDeveloper/gcc-arm-none-eabi-10-2020-q4-major/arm-none-eabi/include/c++/10.2.1/ext/new_allocator.h **** #include <type_traits>
  38:/home/luca/DaisySeedDeveloper/gcc-arm-none-eabi-10-2020-q4-major/arm-none-eabi/include/c++/10.2.1/ext/new_allocator.h **** #endif
  39:/home/luca/DaisySeedDeveloper/gcc-arm-none-eabi-10-2020-q4-major/arm-none-eabi/include/c++/10.2.1/ext/new_allocator.h **** 
  40:/home/luca/DaisySeedDeveloper/gcc-arm-none-eabi-10-2020-q4-major/arm-none-eabi/include/c++/10.2.1/ext/new_allocator.h **** namespace __gnu_cxx _GLIBCXX_VISIBILITY(default)
  41:/home/luca/DaisySeedDeveloper/gcc-arm-none-eabi-10-2020-q4-major/arm-none-eabi/include/c++/10.2.1/ext/new_allocator.h **** {
  42:/home/luca/DaisySeedDeveloper/gcc-arm-none-eabi-10-2020-q4-major/arm-none-eabi/include/c++/10.2.1/ext/new_allocator.h **** _GLIBCXX_BEGIN_NAMESPACE_VERSION
  43:/home/luca/DaisySeedDeveloper/gcc-arm-none-eabi-10-2020-q4-major/arm-none-eabi/include/c++/10.2.1/ext/new_allocator.h **** 
  44:/home/luca/DaisySeedDeveloper/gcc-arm-none-eabi-10-2020-q4-major/arm-none-eabi/include/c++/10.2.1/ext/new_allocator.h ****   /**
  45:/home/luca/DaisySeedDeveloper/gcc-arm-none-eabi-10-2020-q4-major/arm-none-eabi/include/c++/10.2.1/ext/new_allocator.h ****    *  @brief  An allocator that uses global new, as per [20.4].
  46:/home/luca/DaisySeedDeveloper/gcc-arm-none-eabi-10-2020-q4-major/arm-none-eabi/include/c++/10.2.1/ext/new_allocator.h ****    *  @ingroup allocators
  47:/home/luca/DaisySeedDeveloper/gcc-arm-none-eabi-10-2020-q4-major/arm-none-eabi/include/c++/10.2.1/ext/new_allocator.h ****    *
  48:/home/luca/DaisySeedDeveloper/gcc-arm-none-eabi-10-2020-q4-major/arm-none-eabi/include/c++/10.2.1/ext/new_allocator.h ****    *  This is precisely the allocator defined in the C++ Standard.
  49:/home/luca/DaisySeedDeveloper/gcc-arm-none-eabi-10-2020-q4-major/arm-none-eabi/include/c++/10.2.1/ext/new_allocator.h ****    *    - all allocation calls operator new
  50:/home/luca/DaisySeedDeveloper/gcc-arm-none-eabi-10-2020-q4-major/arm-none-eabi/include/c++/10.2.1/ext/new_allocator.h ****    *    - all deallocation calls operator delete
  51:/home/luca/DaisySeedDeveloper/gcc-arm-none-eabi-10-2020-q4-major/arm-none-eabi/include/c++/10.2.1/ext/new_allocator.h ****    *
  52:/home/luca/DaisySeedDeveloper/gcc-arm-none-eabi-10-2020-q4-major/arm-none-eabi/include/c++/10.2.1/ext/new_allocator.h ****    *  @tparam  _Tp  Type of allocated object.
  53:/home/luca/DaisySeedDeveloper/gcc-arm-none-eabi-10-2020-q4-major/arm-none-eabi/include/c++/10.2.1/ext/new_allocator.h ****    */
  54:/home/luca/DaisySeedDeveloper/gcc-arm-none-eabi-10-2020-q4-major/arm-none-eabi/include/c++/10.2.1/ext/new_allocator.h ****   template<typename _Tp>
  55:/home/luca/DaisySeedDeveloper/gcc-arm-none-eabi-10-2020-q4-major/arm-none-eabi/include/c++/10.2.1/ext/new_allocator.h ****     class new_allocator
  56:/home/luca/DaisySeedDeveloper/gcc-arm-none-eabi-10-2020-q4-major/arm-none-eabi/include/c++/10.2.1/ext/new_allocator.h ****     {
  57:/home/luca/DaisySeedDeveloper/gcc-arm-none-eabi-10-2020-q4-major/arm-none-eabi/include/c++/10.2.1/ext/new_allocator.h ****     public:
  58:/home/luca/DaisySeedDeveloper/gcc-arm-none-eabi-10-2020-q4-major/arm-none-eabi/include/c++/10.2.1/ext/new_allocator.h ****       typedef _Tp        value_type;
  59:/home/luca/DaisySeedDeveloper/gcc-arm-none-eabi-10-2020-q4-major/arm-none-eabi/include/c++/10.2.1/ext/new_allocator.h ****       typedef std::size_t     size_type;
  60:/home/luca/DaisySeedDeveloper/gcc-arm-none-eabi-10-2020-q4-major/arm-none-eabi/include/c++/10.2.1/ext/new_allocator.h ****       typedef std::ptrdiff_t  difference_type;
  61:/home/luca/DaisySeedDeveloper/gcc-arm-none-eabi-10-2020-q4-major/arm-none-eabi/include/c++/10.2.1/ext/new_allocator.h **** #if __cplusplus <= 201703L
  62:/home/luca/DaisySeedDeveloper/gcc-arm-none-eabi-10-2020-q4-major/arm-none-eabi/include/c++/10.2.1/ext/new_allocator.h ****       typedef _Tp*       pointer;
  63:/home/luca/DaisySeedDeveloper/gcc-arm-none-eabi-10-2020-q4-major/arm-none-eabi/include/c++/10.2.1/ext/new_allocator.h ****       typedef const _Tp* const_pointer;
  64:/home/luca/DaisySeedDeveloper/gcc-arm-none-eabi-10-2020-q4-major/arm-none-eabi/include/c++/10.2.1/ext/new_allocator.h ****       typedef _Tp&       reference;
  65:/home/luca/DaisySeedDeveloper/gcc-arm-none-eabi-10-2020-q4-major/arm-none-eabi/include/c++/10.2.1/ext/new_allocator.h ****       typedef const _Tp& const_reference;
  66:/home/luca/DaisySeedDeveloper/gcc-arm-none-eabi-10-2020-q4-major/arm-none-eabi/include/c++/10.2.1/ext/new_allocator.h **** 
  67:/home/luca/DaisySeedDeveloper/gcc-arm-none-eabi-10-2020-q4-major/arm-none-eabi/include/c++/10.2.1/ext/new_allocator.h ****       template<typename _Tp1>
  68:/home/luca/DaisySeedDeveloper/gcc-arm-none-eabi-10-2020-q4-major/arm-none-eabi/include/c++/10.2.1/ext/new_allocator.h **** 	struct rebind
  69:/home/luca/DaisySeedDeveloper/gcc-arm-none-eabi-10-2020-q4-major/arm-none-eabi/include/c++/10.2.1/ext/new_allocator.h **** 	{ typedef new_allocator<_Tp1> other; };
  70:/home/luca/DaisySeedDeveloper/gcc-arm-none-eabi-10-2020-q4-major/arm-none-eabi/include/c++/10.2.1/ext/new_allocator.h **** #endif
  71:/home/luca/DaisySeedDeveloper/gcc-arm-none-eabi-10-2020-q4-major/arm-none-eabi/include/c++/10.2.1/ext/new_allocator.h **** 
  72:/home/luca/DaisySeedDeveloper/gcc-arm-none-eabi-10-2020-q4-major/arm-none-eabi/include/c++/10.2.1/ext/new_allocator.h **** #if __cplusplus >= 201103L
  73:/home/luca/DaisySeedDeveloper/gcc-arm-none-eabi-10-2020-q4-major/arm-none-eabi/include/c++/10.2.1/ext/new_allocator.h ****       // _GLIBCXX_RESOLVE_LIB_DEFECTS
ARM GAS  /tmp/ccOjaarx.s 			page 36


  74:/home/luca/DaisySeedDeveloper/gcc-arm-none-eabi-10-2020-q4-major/arm-none-eabi/include/c++/10.2.1/ext/new_allocator.h ****       // 2103. propagate_on_container_move_assignment
  75:/home/luca/DaisySeedDeveloper/gcc-arm-none-eabi-10-2020-q4-major/arm-none-eabi/include/c++/10.2.1/ext/new_allocator.h ****       typedef std::true_type propagate_on_container_move_assignment;
  76:/home/luca/DaisySeedDeveloper/gcc-arm-none-eabi-10-2020-q4-major/arm-none-eabi/include/c++/10.2.1/ext/new_allocator.h **** #endif
  77:/home/luca/DaisySeedDeveloper/gcc-arm-none-eabi-10-2020-q4-major/arm-none-eabi/include/c++/10.2.1/ext/new_allocator.h **** 
  78:/home/luca/DaisySeedDeveloper/gcc-arm-none-eabi-10-2020-q4-major/arm-none-eabi/include/c++/10.2.1/ext/new_allocator.h ****       _GLIBCXX20_CONSTEXPR
  79:/home/luca/DaisySeedDeveloper/gcc-arm-none-eabi-10-2020-q4-major/arm-none-eabi/include/c++/10.2.1/ext/new_allocator.h ****       new_allocator() _GLIBCXX_USE_NOEXCEPT { }
  80:/home/luca/DaisySeedDeveloper/gcc-arm-none-eabi-10-2020-q4-major/arm-none-eabi/include/c++/10.2.1/ext/new_allocator.h **** 
  81:/home/luca/DaisySeedDeveloper/gcc-arm-none-eabi-10-2020-q4-major/arm-none-eabi/include/c++/10.2.1/ext/new_allocator.h ****       _GLIBCXX20_CONSTEXPR
  82:/home/luca/DaisySeedDeveloper/gcc-arm-none-eabi-10-2020-q4-major/arm-none-eabi/include/c++/10.2.1/ext/new_allocator.h ****       new_allocator(const new_allocator&) _GLIBCXX_USE_NOEXCEPT { }
 648              		.loc 13 82 7 view .LVU138
 649              		.loc 13 82 7 is_stmt 0 view .LVU139
 650              	.LBE496:
 651              	.LBE495:
 652              	.LBE494:
 653              	.LBE493:
 654              	.LBB498:
 655              	.LBB492:
 193:/home/luca/DaisySeedDeveloper/gcc-arm-none-eabi-10-2020-q4-major/arm-none-eabi/include/c++/10.2.1/bits/basic_string.h **** #else
 656              		.loc 11 193 51 view .LVU140
 657 0000 00F10803 		add	r3, r0, #8
 658              	.LBE492:
 659              	.LBE498:
 660              	.LBE490:
 661              		.loc 11 525 7 view .LVU141
 662 0004 73B5     		push	{r0, r1, r4, r5, r6, lr}
 663              		.cfi_def_cfa_offset 24
 664              		.cfi_offset 4, -16
 665              		.cfi_offset 5, -12
 666              		.cfi_offset 6, -8
 667              		.cfi_offset 14, -4
 668              		.loc 11 525 7 view .LVU142
 669 0006 0446     		mov	r4, r0
 670              	.LBB538:
 526:/home/luca/DaisySeedDeveloper/gcc-arm-none-eabi-10-2020-q4-major/arm-none-eabi/include/c++/10.2.1/bits/basic_string.h ****       : _M_dataplus(_M_local_data(), __a)
 527:/home/luca/DaisySeedDeveloper/gcc-arm-none-eabi-10-2020-q4-major/arm-none-eabi/include/c++/10.2.1/bits/basic_string.h ****       { _M_construct(__s, __s ? __s + traits_type::length(__s) : __s+npos); }
 671              		.loc 11 527 21 view .LVU143
 672 0008 0D46     		mov	r5, r1
 673              	.LBB499:
 674              	.LBB497:
 157:/home/luca/DaisySeedDeveloper/gcc-arm-none-eabi-10-2020-q4-major/arm-none-eabi/include/c++/10.2.1/bits/basic_string.h **** 
 675              		.loc 11 157 35 view .LVU144
 676 000a 0360     		str	r3, [r0]
 677              	.LVL37:
 157:/home/luca/DaisySeedDeveloper/gcc-arm-none-eabi-10-2020-q4-major/arm-none-eabi/include/c++/10.2.1/bits/basic_string.h **** 
 678              		.loc 11 157 35 view .LVU145
 679              	.LBE497:
 680              	.LBE499:
 681              		.loc 11 527 21 view .LVU146
 682 000c D9B1     		cbz	r1, .L32
 683              	.LVL38:
 684              	.LBB500:
 685              	.LBI500:
 686              		.file 14 "/home/luca/DaisySeedDeveloper/gcc-arm-none-eabi-10-2020-q4-major/arm-none-eabi/include/c
   1:/home/luca/DaisySeedDeveloper/gcc-arm-none-eabi-10-2020-q4-major/arm-none-eabi/include/c++/10.2.1/bits/char_traits.h **** // Character Traits for use by standard string and iostream -*- C++ -*-
   2:/home/luca/DaisySeedDeveloper/gcc-arm-none-eabi-10-2020-q4-major/arm-none-eabi/include/c++/10.2.1/bits/char_traits.h **** 
   3:/home/luca/DaisySeedDeveloper/gcc-arm-none-eabi-10-2020-q4-major/arm-none-eabi/include/c++/10.2.1/bits/char_traits.h **** // Copyright (C) 1997-2020 Free Software Foundation, Inc.
   4:/home/luca/DaisySeedDeveloper/gcc-arm-none-eabi-10-2020-q4-major/arm-none-eabi/include/c++/10.2.1/bits/char_traits.h **** //
ARM GAS  /tmp/ccOjaarx.s 			page 37


   5:/home/luca/DaisySeedDeveloper/gcc-arm-none-eabi-10-2020-q4-major/arm-none-eabi/include/c++/10.2.1/bits/char_traits.h **** // This file is part of the GNU ISO C++ Library.  This library is free
   6:/home/luca/DaisySeedDeveloper/gcc-arm-none-eabi-10-2020-q4-major/arm-none-eabi/include/c++/10.2.1/bits/char_traits.h **** // software; you can redistribute it and/or modify it under the
   7:/home/luca/DaisySeedDeveloper/gcc-arm-none-eabi-10-2020-q4-major/arm-none-eabi/include/c++/10.2.1/bits/char_traits.h **** // terms of the GNU General Public License as published by the
   8:/home/luca/DaisySeedDeveloper/gcc-arm-none-eabi-10-2020-q4-major/arm-none-eabi/include/c++/10.2.1/bits/char_traits.h **** // Free Software Foundation; either version 3, or (at your option)
   9:/home/luca/DaisySeedDeveloper/gcc-arm-none-eabi-10-2020-q4-major/arm-none-eabi/include/c++/10.2.1/bits/char_traits.h **** // any later version.
  10:/home/luca/DaisySeedDeveloper/gcc-arm-none-eabi-10-2020-q4-major/arm-none-eabi/include/c++/10.2.1/bits/char_traits.h **** 
  11:/home/luca/DaisySeedDeveloper/gcc-arm-none-eabi-10-2020-q4-major/arm-none-eabi/include/c++/10.2.1/bits/char_traits.h **** // This library is distributed in the hope that it will be useful,
  12:/home/luca/DaisySeedDeveloper/gcc-arm-none-eabi-10-2020-q4-major/arm-none-eabi/include/c++/10.2.1/bits/char_traits.h **** // but WITHOUT ANY WARRANTY; without even the implied warranty of
  13:/home/luca/DaisySeedDeveloper/gcc-arm-none-eabi-10-2020-q4-major/arm-none-eabi/include/c++/10.2.1/bits/char_traits.h **** // MERCHANTABILITY or FITNESS FOR A PARTICULAR PURPOSE.  See the
  14:/home/luca/DaisySeedDeveloper/gcc-arm-none-eabi-10-2020-q4-major/arm-none-eabi/include/c++/10.2.1/bits/char_traits.h **** // GNU General Public License for more details.
  15:/home/luca/DaisySeedDeveloper/gcc-arm-none-eabi-10-2020-q4-major/arm-none-eabi/include/c++/10.2.1/bits/char_traits.h **** 
  16:/home/luca/DaisySeedDeveloper/gcc-arm-none-eabi-10-2020-q4-major/arm-none-eabi/include/c++/10.2.1/bits/char_traits.h **** // Under Section 7 of GPL version 3, you are granted additional
  17:/home/luca/DaisySeedDeveloper/gcc-arm-none-eabi-10-2020-q4-major/arm-none-eabi/include/c++/10.2.1/bits/char_traits.h **** // permissions described in the GCC Runtime Library Exception, version
  18:/home/luca/DaisySeedDeveloper/gcc-arm-none-eabi-10-2020-q4-major/arm-none-eabi/include/c++/10.2.1/bits/char_traits.h **** // 3.1, as published by the Free Software Foundation.
  19:/home/luca/DaisySeedDeveloper/gcc-arm-none-eabi-10-2020-q4-major/arm-none-eabi/include/c++/10.2.1/bits/char_traits.h **** 
  20:/home/luca/DaisySeedDeveloper/gcc-arm-none-eabi-10-2020-q4-major/arm-none-eabi/include/c++/10.2.1/bits/char_traits.h **** // You should have received a copy of the GNU General Public License and
  21:/home/luca/DaisySeedDeveloper/gcc-arm-none-eabi-10-2020-q4-major/arm-none-eabi/include/c++/10.2.1/bits/char_traits.h **** // a copy of the GCC Runtime Library Exception along with this program;
  22:/home/luca/DaisySeedDeveloper/gcc-arm-none-eabi-10-2020-q4-major/arm-none-eabi/include/c++/10.2.1/bits/char_traits.h **** // see the files COPYING3 and COPYING.RUNTIME respectively.  If not, see
  23:/home/luca/DaisySeedDeveloper/gcc-arm-none-eabi-10-2020-q4-major/arm-none-eabi/include/c++/10.2.1/bits/char_traits.h **** // <http://www.gnu.org/licenses/>.
  24:/home/luca/DaisySeedDeveloper/gcc-arm-none-eabi-10-2020-q4-major/arm-none-eabi/include/c++/10.2.1/bits/char_traits.h **** 
  25:/home/luca/DaisySeedDeveloper/gcc-arm-none-eabi-10-2020-q4-major/arm-none-eabi/include/c++/10.2.1/bits/char_traits.h **** /** @file bits/char_traits.h
  26:/home/luca/DaisySeedDeveloper/gcc-arm-none-eabi-10-2020-q4-major/arm-none-eabi/include/c++/10.2.1/bits/char_traits.h ****  *  This is an internal header file, included by other library headers.
  27:/home/luca/DaisySeedDeveloper/gcc-arm-none-eabi-10-2020-q4-major/arm-none-eabi/include/c++/10.2.1/bits/char_traits.h ****  *  Do not attempt to use it directly. @headername{string}
  28:/home/luca/DaisySeedDeveloper/gcc-arm-none-eabi-10-2020-q4-major/arm-none-eabi/include/c++/10.2.1/bits/char_traits.h ****  */
  29:/home/luca/DaisySeedDeveloper/gcc-arm-none-eabi-10-2020-q4-major/arm-none-eabi/include/c++/10.2.1/bits/char_traits.h **** 
  30:/home/luca/DaisySeedDeveloper/gcc-arm-none-eabi-10-2020-q4-major/arm-none-eabi/include/c++/10.2.1/bits/char_traits.h **** //
  31:/home/luca/DaisySeedDeveloper/gcc-arm-none-eabi-10-2020-q4-major/arm-none-eabi/include/c++/10.2.1/bits/char_traits.h **** // ISO C++ 14882: 21  Strings library
  32:/home/luca/DaisySeedDeveloper/gcc-arm-none-eabi-10-2020-q4-major/arm-none-eabi/include/c++/10.2.1/bits/char_traits.h **** //
  33:/home/luca/DaisySeedDeveloper/gcc-arm-none-eabi-10-2020-q4-major/arm-none-eabi/include/c++/10.2.1/bits/char_traits.h **** 
  34:/home/luca/DaisySeedDeveloper/gcc-arm-none-eabi-10-2020-q4-major/arm-none-eabi/include/c++/10.2.1/bits/char_traits.h **** #ifndef _CHAR_TRAITS_H
  35:/home/luca/DaisySeedDeveloper/gcc-arm-none-eabi-10-2020-q4-major/arm-none-eabi/include/c++/10.2.1/bits/char_traits.h **** #define _CHAR_TRAITS_H 1
  36:/home/luca/DaisySeedDeveloper/gcc-arm-none-eabi-10-2020-q4-major/arm-none-eabi/include/c++/10.2.1/bits/char_traits.h **** 
  37:/home/luca/DaisySeedDeveloper/gcc-arm-none-eabi-10-2020-q4-major/arm-none-eabi/include/c++/10.2.1/bits/char_traits.h **** #pragma GCC system_header
  38:/home/luca/DaisySeedDeveloper/gcc-arm-none-eabi-10-2020-q4-major/arm-none-eabi/include/c++/10.2.1/bits/char_traits.h **** 
  39:/home/luca/DaisySeedDeveloper/gcc-arm-none-eabi-10-2020-q4-major/arm-none-eabi/include/c++/10.2.1/bits/char_traits.h **** #include <bits/stl_algobase.h>  // std::copy, std::fill_n
  40:/home/luca/DaisySeedDeveloper/gcc-arm-none-eabi-10-2020-q4-major/arm-none-eabi/include/c++/10.2.1/bits/char_traits.h **** #include <bits/postypes.h>      // For streampos
  41:/home/luca/DaisySeedDeveloper/gcc-arm-none-eabi-10-2020-q4-major/arm-none-eabi/include/c++/10.2.1/bits/char_traits.h **** #include <cwchar>               // For WEOF, wmemmove, wmemset, etc.
  42:/home/luca/DaisySeedDeveloper/gcc-arm-none-eabi-10-2020-q4-major/arm-none-eabi/include/c++/10.2.1/bits/char_traits.h **** #if __cplusplus > 201703L
  43:/home/luca/DaisySeedDeveloper/gcc-arm-none-eabi-10-2020-q4-major/arm-none-eabi/include/c++/10.2.1/bits/char_traits.h **** # include <compare>
  44:/home/luca/DaisySeedDeveloper/gcc-arm-none-eabi-10-2020-q4-major/arm-none-eabi/include/c++/10.2.1/bits/char_traits.h **** #endif
  45:/home/luca/DaisySeedDeveloper/gcc-arm-none-eabi-10-2020-q4-major/arm-none-eabi/include/c++/10.2.1/bits/char_traits.h **** 
  46:/home/luca/DaisySeedDeveloper/gcc-arm-none-eabi-10-2020-q4-major/arm-none-eabi/include/c++/10.2.1/bits/char_traits.h **** #ifndef _GLIBCXX_ALWAYS_INLINE
  47:/home/luca/DaisySeedDeveloper/gcc-arm-none-eabi-10-2020-q4-major/arm-none-eabi/include/c++/10.2.1/bits/char_traits.h **** # define _GLIBCXX_ALWAYS_INLINE inline __attribute__((__always_inline__))
  48:/home/luca/DaisySeedDeveloper/gcc-arm-none-eabi-10-2020-q4-major/arm-none-eabi/include/c++/10.2.1/bits/char_traits.h **** #endif
  49:/home/luca/DaisySeedDeveloper/gcc-arm-none-eabi-10-2020-q4-major/arm-none-eabi/include/c++/10.2.1/bits/char_traits.h **** 
  50:/home/luca/DaisySeedDeveloper/gcc-arm-none-eabi-10-2020-q4-major/arm-none-eabi/include/c++/10.2.1/bits/char_traits.h **** namespace __gnu_cxx _GLIBCXX_VISIBILITY(default)
  51:/home/luca/DaisySeedDeveloper/gcc-arm-none-eabi-10-2020-q4-major/arm-none-eabi/include/c++/10.2.1/bits/char_traits.h **** {
  52:/home/luca/DaisySeedDeveloper/gcc-arm-none-eabi-10-2020-q4-major/arm-none-eabi/include/c++/10.2.1/bits/char_traits.h **** _GLIBCXX_BEGIN_NAMESPACE_VERSION
  53:/home/luca/DaisySeedDeveloper/gcc-arm-none-eabi-10-2020-q4-major/arm-none-eabi/include/c++/10.2.1/bits/char_traits.h **** 
  54:/home/luca/DaisySeedDeveloper/gcc-arm-none-eabi-10-2020-q4-major/arm-none-eabi/include/c++/10.2.1/bits/char_traits.h ****   /**
  55:/home/luca/DaisySeedDeveloper/gcc-arm-none-eabi-10-2020-q4-major/arm-none-eabi/include/c++/10.2.1/bits/char_traits.h ****    *  @brief  Mapping from character type to associated types.
  56:/home/luca/DaisySeedDeveloper/gcc-arm-none-eabi-10-2020-q4-major/arm-none-eabi/include/c++/10.2.1/bits/char_traits.h ****    *
  57:/home/luca/DaisySeedDeveloper/gcc-arm-none-eabi-10-2020-q4-major/arm-none-eabi/include/c++/10.2.1/bits/char_traits.h ****    *  @note This is an implementation class for the generic version
  58:/home/luca/DaisySeedDeveloper/gcc-arm-none-eabi-10-2020-q4-major/arm-none-eabi/include/c++/10.2.1/bits/char_traits.h ****    *  of char_traits.  It defines int_type, off_type, pos_type, and
  59:/home/luca/DaisySeedDeveloper/gcc-arm-none-eabi-10-2020-q4-major/arm-none-eabi/include/c++/10.2.1/bits/char_traits.h ****    *  state_type.  By default these are unsigned long, streamoff,
  60:/home/luca/DaisySeedDeveloper/gcc-arm-none-eabi-10-2020-q4-major/arm-none-eabi/include/c++/10.2.1/bits/char_traits.h ****    *  streampos, and mbstate_t.  Users who need a different set of
  61:/home/luca/DaisySeedDeveloper/gcc-arm-none-eabi-10-2020-q4-major/arm-none-eabi/include/c++/10.2.1/bits/char_traits.h ****    *  types, but who don't need to change the definitions of any function
ARM GAS  /tmp/ccOjaarx.s 			page 38


  62:/home/luca/DaisySeedDeveloper/gcc-arm-none-eabi-10-2020-q4-major/arm-none-eabi/include/c++/10.2.1/bits/char_traits.h ****    *  defined in char_traits, can specialize __gnu_cxx::_Char_types
  63:/home/luca/DaisySeedDeveloper/gcc-arm-none-eabi-10-2020-q4-major/arm-none-eabi/include/c++/10.2.1/bits/char_traits.h ****    *  while leaving __gnu_cxx::char_traits alone. */
  64:/home/luca/DaisySeedDeveloper/gcc-arm-none-eabi-10-2020-q4-major/arm-none-eabi/include/c++/10.2.1/bits/char_traits.h ****   template<typename _CharT>
  65:/home/luca/DaisySeedDeveloper/gcc-arm-none-eabi-10-2020-q4-major/arm-none-eabi/include/c++/10.2.1/bits/char_traits.h ****     struct _Char_types
  66:/home/luca/DaisySeedDeveloper/gcc-arm-none-eabi-10-2020-q4-major/arm-none-eabi/include/c++/10.2.1/bits/char_traits.h ****     {
  67:/home/luca/DaisySeedDeveloper/gcc-arm-none-eabi-10-2020-q4-major/arm-none-eabi/include/c++/10.2.1/bits/char_traits.h ****       typedef unsigned long   int_type;
  68:/home/luca/DaisySeedDeveloper/gcc-arm-none-eabi-10-2020-q4-major/arm-none-eabi/include/c++/10.2.1/bits/char_traits.h ****       typedef std::streampos  pos_type;
  69:/home/luca/DaisySeedDeveloper/gcc-arm-none-eabi-10-2020-q4-major/arm-none-eabi/include/c++/10.2.1/bits/char_traits.h ****       typedef std::streamoff  off_type;
  70:/home/luca/DaisySeedDeveloper/gcc-arm-none-eabi-10-2020-q4-major/arm-none-eabi/include/c++/10.2.1/bits/char_traits.h ****       typedef std::mbstate_t  state_type;
  71:/home/luca/DaisySeedDeveloper/gcc-arm-none-eabi-10-2020-q4-major/arm-none-eabi/include/c++/10.2.1/bits/char_traits.h ****     };
  72:/home/luca/DaisySeedDeveloper/gcc-arm-none-eabi-10-2020-q4-major/arm-none-eabi/include/c++/10.2.1/bits/char_traits.h **** 
  73:/home/luca/DaisySeedDeveloper/gcc-arm-none-eabi-10-2020-q4-major/arm-none-eabi/include/c++/10.2.1/bits/char_traits.h **** 
  74:/home/luca/DaisySeedDeveloper/gcc-arm-none-eabi-10-2020-q4-major/arm-none-eabi/include/c++/10.2.1/bits/char_traits.h ****   /**
  75:/home/luca/DaisySeedDeveloper/gcc-arm-none-eabi-10-2020-q4-major/arm-none-eabi/include/c++/10.2.1/bits/char_traits.h ****    *  @brief  Base class used to implement std::char_traits.
  76:/home/luca/DaisySeedDeveloper/gcc-arm-none-eabi-10-2020-q4-major/arm-none-eabi/include/c++/10.2.1/bits/char_traits.h ****    *
  77:/home/luca/DaisySeedDeveloper/gcc-arm-none-eabi-10-2020-q4-major/arm-none-eabi/include/c++/10.2.1/bits/char_traits.h ****    *  @note For any given actual character type, this definition is
  78:/home/luca/DaisySeedDeveloper/gcc-arm-none-eabi-10-2020-q4-major/arm-none-eabi/include/c++/10.2.1/bits/char_traits.h ****    *  probably wrong.  (Most of the member functions are likely to be
  79:/home/luca/DaisySeedDeveloper/gcc-arm-none-eabi-10-2020-q4-major/arm-none-eabi/include/c++/10.2.1/bits/char_traits.h ****    *  right, but the int_type and state_type typedefs, and the eof()
  80:/home/luca/DaisySeedDeveloper/gcc-arm-none-eabi-10-2020-q4-major/arm-none-eabi/include/c++/10.2.1/bits/char_traits.h ****    *  member function, are likely to be wrong.)  The reason this class
  81:/home/luca/DaisySeedDeveloper/gcc-arm-none-eabi-10-2020-q4-major/arm-none-eabi/include/c++/10.2.1/bits/char_traits.h ****    *  exists is so users can specialize it.  Classes in namespace std
  82:/home/luca/DaisySeedDeveloper/gcc-arm-none-eabi-10-2020-q4-major/arm-none-eabi/include/c++/10.2.1/bits/char_traits.h ****    *  may not be specialized for fundamental types, but classes in
  83:/home/luca/DaisySeedDeveloper/gcc-arm-none-eabi-10-2020-q4-major/arm-none-eabi/include/c++/10.2.1/bits/char_traits.h ****    *  namespace __gnu_cxx may be.
  84:/home/luca/DaisySeedDeveloper/gcc-arm-none-eabi-10-2020-q4-major/arm-none-eabi/include/c++/10.2.1/bits/char_traits.h ****    *
  85:/home/luca/DaisySeedDeveloper/gcc-arm-none-eabi-10-2020-q4-major/arm-none-eabi/include/c++/10.2.1/bits/char_traits.h ****    *  See https://gcc.gnu.org/onlinedocs/libstdc++/manual/strings.html#strings.string.character_typ
  86:/home/luca/DaisySeedDeveloper/gcc-arm-none-eabi-10-2020-q4-major/arm-none-eabi/include/c++/10.2.1/bits/char_traits.h ****    *  for advice on how to make use of this class for @a unusual character
  87:/home/luca/DaisySeedDeveloper/gcc-arm-none-eabi-10-2020-q4-major/arm-none-eabi/include/c++/10.2.1/bits/char_traits.h ****    *  types. Also, check out include/ext/pod_char_traits.h.  
  88:/home/luca/DaisySeedDeveloper/gcc-arm-none-eabi-10-2020-q4-major/arm-none-eabi/include/c++/10.2.1/bits/char_traits.h ****    */
  89:/home/luca/DaisySeedDeveloper/gcc-arm-none-eabi-10-2020-q4-major/arm-none-eabi/include/c++/10.2.1/bits/char_traits.h ****   template<typename _CharT>
  90:/home/luca/DaisySeedDeveloper/gcc-arm-none-eabi-10-2020-q4-major/arm-none-eabi/include/c++/10.2.1/bits/char_traits.h ****     struct char_traits
  91:/home/luca/DaisySeedDeveloper/gcc-arm-none-eabi-10-2020-q4-major/arm-none-eabi/include/c++/10.2.1/bits/char_traits.h ****     {
  92:/home/luca/DaisySeedDeveloper/gcc-arm-none-eabi-10-2020-q4-major/arm-none-eabi/include/c++/10.2.1/bits/char_traits.h ****       typedef _CharT                                    char_type;
  93:/home/luca/DaisySeedDeveloper/gcc-arm-none-eabi-10-2020-q4-major/arm-none-eabi/include/c++/10.2.1/bits/char_traits.h ****       typedef typename _Char_types<_CharT>::int_type    int_type;
  94:/home/luca/DaisySeedDeveloper/gcc-arm-none-eabi-10-2020-q4-major/arm-none-eabi/include/c++/10.2.1/bits/char_traits.h ****       typedef typename _Char_types<_CharT>::pos_type    pos_type;
  95:/home/luca/DaisySeedDeveloper/gcc-arm-none-eabi-10-2020-q4-major/arm-none-eabi/include/c++/10.2.1/bits/char_traits.h ****       typedef typename _Char_types<_CharT>::off_type    off_type;
  96:/home/luca/DaisySeedDeveloper/gcc-arm-none-eabi-10-2020-q4-major/arm-none-eabi/include/c++/10.2.1/bits/char_traits.h ****       typedef typename _Char_types<_CharT>::state_type  state_type;
  97:/home/luca/DaisySeedDeveloper/gcc-arm-none-eabi-10-2020-q4-major/arm-none-eabi/include/c++/10.2.1/bits/char_traits.h **** #if __cpp_lib_three_way_comparison
  98:/home/luca/DaisySeedDeveloper/gcc-arm-none-eabi-10-2020-q4-major/arm-none-eabi/include/c++/10.2.1/bits/char_traits.h ****       using comparison_category = std::strong_ordering;
  99:/home/luca/DaisySeedDeveloper/gcc-arm-none-eabi-10-2020-q4-major/arm-none-eabi/include/c++/10.2.1/bits/char_traits.h **** #endif
 100:/home/luca/DaisySeedDeveloper/gcc-arm-none-eabi-10-2020-q4-major/arm-none-eabi/include/c++/10.2.1/bits/char_traits.h **** 
 101:/home/luca/DaisySeedDeveloper/gcc-arm-none-eabi-10-2020-q4-major/arm-none-eabi/include/c++/10.2.1/bits/char_traits.h ****       static _GLIBCXX14_CONSTEXPR void
 102:/home/luca/DaisySeedDeveloper/gcc-arm-none-eabi-10-2020-q4-major/arm-none-eabi/include/c++/10.2.1/bits/char_traits.h ****       assign(char_type& __c1, const char_type& __c2)
 103:/home/luca/DaisySeedDeveloper/gcc-arm-none-eabi-10-2020-q4-major/arm-none-eabi/include/c++/10.2.1/bits/char_traits.h ****       { __c1 = __c2; }
 104:/home/luca/DaisySeedDeveloper/gcc-arm-none-eabi-10-2020-q4-major/arm-none-eabi/include/c++/10.2.1/bits/char_traits.h **** 
 105:/home/luca/DaisySeedDeveloper/gcc-arm-none-eabi-10-2020-q4-major/arm-none-eabi/include/c++/10.2.1/bits/char_traits.h ****       static _GLIBCXX_CONSTEXPR bool
 106:/home/luca/DaisySeedDeveloper/gcc-arm-none-eabi-10-2020-q4-major/arm-none-eabi/include/c++/10.2.1/bits/char_traits.h ****       eq(const char_type& __c1, const char_type& __c2)
 107:/home/luca/DaisySeedDeveloper/gcc-arm-none-eabi-10-2020-q4-major/arm-none-eabi/include/c++/10.2.1/bits/char_traits.h ****       { return __c1 == __c2; }
 108:/home/luca/DaisySeedDeveloper/gcc-arm-none-eabi-10-2020-q4-major/arm-none-eabi/include/c++/10.2.1/bits/char_traits.h **** 
 109:/home/luca/DaisySeedDeveloper/gcc-arm-none-eabi-10-2020-q4-major/arm-none-eabi/include/c++/10.2.1/bits/char_traits.h ****       static _GLIBCXX_CONSTEXPR bool
 110:/home/luca/DaisySeedDeveloper/gcc-arm-none-eabi-10-2020-q4-major/arm-none-eabi/include/c++/10.2.1/bits/char_traits.h ****       lt(const char_type& __c1, const char_type& __c2)
 111:/home/luca/DaisySeedDeveloper/gcc-arm-none-eabi-10-2020-q4-major/arm-none-eabi/include/c++/10.2.1/bits/char_traits.h ****       { return __c1 < __c2; }
 112:/home/luca/DaisySeedDeveloper/gcc-arm-none-eabi-10-2020-q4-major/arm-none-eabi/include/c++/10.2.1/bits/char_traits.h **** 
 113:/home/luca/DaisySeedDeveloper/gcc-arm-none-eabi-10-2020-q4-major/arm-none-eabi/include/c++/10.2.1/bits/char_traits.h ****       static _GLIBCXX14_CONSTEXPR int
 114:/home/luca/DaisySeedDeveloper/gcc-arm-none-eabi-10-2020-q4-major/arm-none-eabi/include/c++/10.2.1/bits/char_traits.h ****       compare(const char_type* __s1, const char_type* __s2, std::size_t __n);
 115:/home/luca/DaisySeedDeveloper/gcc-arm-none-eabi-10-2020-q4-major/arm-none-eabi/include/c++/10.2.1/bits/char_traits.h **** 
 116:/home/luca/DaisySeedDeveloper/gcc-arm-none-eabi-10-2020-q4-major/arm-none-eabi/include/c++/10.2.1/bits/char_traits.h ****       static _GLIBCXX14_CONSTEXPR std::size_t
 117:/home/luca/DaisySeedDeveloper/gcc-arm-none-eabi-10-2020-q4-major/arm-none-eabi/include/c++/10.2.1/bits/char_traits.h ****       length(const char_type* __s);
 118:/home/luca/DaisySeedDeveloper/gcc-arm-none-eabi-10-2020-q4-major/arm-none-eabi/include/c++/10.2.1/bits/char_traits.h **** 
ARM GAS  /tmp/ccOjaarx.s 			page 39


 119:/home/luca/DaisySeedDeveloper/gcc-arm-none-eabi-10-2020-q4-major/arm-none-eabi/include/c++/10.2.1/bits/char_traits.h ****       static _GLIBCXX14_CONSTEXPR const char_type*
 120:/home/luca/DaisySeedDeveloper/gcc-arm-none-eabi-10-2020-q4-major/arm-none-eabi/include/c++/10.2.1/bits/char_traits.h ****       find(const char_type* __s, std::size_t __n, const char_type& __a);
 121:/home/luca/DaisySeedDeveloper/gcc-arm-none-eabi-10-2020-q4-major/arm-none-eabi/include/c++/10.2.1/bits/char_traits.h **** 
 122:/home/luca/DaisySeedDeveloper/gcc-arm-none-eabi-10-2020-q4-major/arm-none-eabi/include/c++/10.2.1/bits/char_traits.h ****       static _GLIBCXX20_CONSTEXPR char_type*
 123:/home/luca/DaisySeedDeveloper/gcc-arm-none-eabi-10-2020-q4-major/arm-none-eabi/include/c++/10.2.1/bits/char_traits.h ****       move(char_type* __s1, const char_type* __s2, std::size_t __n);
 124:/home/luca/DaisySeedDeveloper/gcc-arm-none-eabi-10-2020-q4-major/arm-none-eabi/include/c++/10.2.1/bits/char_traits.h **** 
 125:/home/luca/DaisySeedDeveloper/gcc-arm-none-eabi-10-2020-q4-major/arm-none-eabi/include/c++/10.2.1/bits/char_traits.h ****       static _GLIBCXX20_CONSTEXPR char_type*
 126:/home/luca/DaisySeedDeveloper/gcc-arm-none-eabi-10-2020-q4-major/arm-none-eabi/include/c++/10.2.1/bits/char_traits.h ****       copy(char_type* __s1, const char_type* __s2, std::size_t __n);
 127:/home/luca/DaisySeedDeveloper/gcc-arm-none-eabi-10-2020-q4-major/arm-none-eabi/include/c++/10.2.1/bits/char_traits.h **** 
 128:/home/luca/DaisySeedDeveloper/gcc-arm-none-eabi-10-2020-q4-major/arm-none-eabi/include/c++/10.2.1/bits/char_traits.h ****       static _GLIBCXX20_CONSTEXPR char_type*
 129:/home/luca/DaisySeedDeveloper/gcc-arm-none-eabi-10-2020-q4-major/arm-none-eabi/include/c++/10.2.1/bits/char_traits.h ****       assign(char_type* __s, std::size_t __n, char_type __a);
 130:/home/luca/DaisySeedDeveloper/gcc-arm-none-eabi-10-2020-q4-major/arm-none-eabi/include/c++/10.2.1/bits/char_traits.h **** 
 131:/home/luca/DaisySeedDeveloper/gcc-arm-none-eabi-10-2020-q4-major/arm-none-eabi/include/c++/10.2.1/bits/char_traits.h ****       static _GLIBCXX_CONSTEXPR char_type
 132:/home/luca/DaisySeedDeveloper/gcc-arm-none-eabi-10-2020-q4-major/arm-none-eabi/include/c++/10.2.1/bits/char_traits.h ****       to_char_type(const int_type& __c)
 133:/home/luca/DaisySeedDeveloper/gcc-arm-none-eabi-10-2020-q4-major/arm-none-eabi/include/c++/10.2.1/bits/char_traits.h ****       { return static_cast<char_type>(__c); }
 134:/home/luca/DaisySeedDeveloper/gcc-arm-none-eabi-10-2020-q4-major/arm-none-eabi/include/c++/10.2.1/bits/char_traits.h **** 
 135:/home/luca/DaisySeedDeveloper/gcc-arm-none-eabi-10-2020-q4-major/arm-none-eabi/include/c++/10.2.1/bits/char_traits.h ****       static _GLIBCXX_CONSTEXPR int_type
 136:/home/luca/DaisySeedDeveloper/gcc-arm-none-eabi-10-2020-q4-major/arm-none-eabi/include/c++/10.2.1/bits/char_traits.h ****       to_int_type(const char_type& __c)
 137:/home/luca/DaisySeedDeveloper/gcc-arm-none-eabi-10-2020-q4-major/arm-none-eabi/include/c++/10.2.1/bits/char_traits.h ****       { return static_cast<int_type>(__c); }
 138:/home/luca/DaisySeedDeveloper/gcc-arm-none-eabi-10-2020-q4-major/arm-none-eabi/include/c++/10.2.1/bits/char_traits.h **** 
 139:/home/luca/DaisySeedDeveloper/gcc-arm-none-eabi-10-2020-q4-major/arm-none-eabi/include/c++/10.2.1/bits/char_traits.h ****       static _GLIBCXX_CONSTEXPR bool
 140:/home/luca/DaisySeedDeveloper/gcc-arm-none-eabi-10-2020-q4-major/arm-none-eabi/include/c++/10.2.1/bits/char_traits.h ****       eq_int_type(const int_type& __c1, const int_type& __c2)
 141:/home/luca/DaisySeedDeveloper/gcc-arm-none-eabi-10-2020-q4-major/arm-none-eabi/include/c++/10.2.1/bits/char_traits.h ****       { return __c1 == __c2; }
 142:/home/luca/DaisySeedDeveloper/gcc-arm-none-eabi-10-2020-q4-major/arm-none-eabi/include/c++/10.2.1/bits/char_traits.h **** 
 143:/home/luca/DaisySeedDeveloper/gcc-arm-none-eabi-10-2020-q4-major/arm-none-eabi/include/c++/10.2.1/bits/char_traits.h ****       static _GLIBCXX_CONSTEXPR int_type
 144:/home/luca/DaisySeedDeveloper/gcc-arm-none-eabi-10-2020-q4-major/arm-none-eabi/include/c++/10.2.1/bits/char_traits.h ****       eof()
 145:/home/luca/DaisySeedDeveloper/gcc-arm-none-eabi-10-2020-q4-major/arm-none-eabi/include/c++/10.2.1/bits/char_traits.h ****       { return static_cast<int_type>(_GLIBCXX_STDIO_EOF); }
 146:/home/luca/DaisySeedDeveloper/gcc-arm-none-eabi-10-2020-q4-major/arm-none-eabi/include/c++/10.2.1/bits/char_traits.h **** 
 147:/home/luca/DaisySeedDeveloper/gcc-arm-none-eabi-10-2020-q4-major/arm-none-eabi/include/c++/10.2.1/bits/char_traits.h ****       static _GLIBCXX_CONSTEXPR int_type
 148:/home/luca/DaisySeedDeveloper/gcc-arm-none-eabi-10-2020-q4-major/arm-none-eabi/include/c++/10.2.1/bits/char_traits.h ****       not_eof(const int_type& __c)
 149:/home/luca/DaisySeedDeveloper/gcc-arm-none-eabi-10-2020-q4-major/arm-none-eabi/include/c++/10.2.1/bits/char_traits.h ****       { return !eq_int_type(__c, eof()) ? __c : to_int_type(char_type()); }
 150:/home/luca/DaisySeedDeveloper/gcc-arm-none-eabi-10-2020-q4-major/arm-none-eabi/include/c++/10.2.1/bits/char_traits.h ****     };
 151:/home/luca/DaisySeedDeveloper/gcc-arm-none-eabi-10-2020-q4-major/arm-none-eabi/include/c++/10.2.1/bits/char_traits.h **** 
 152:/home/luca/DaisySeedDeveloper/gcc-arm-none-eabi-10-2020-q4-major/arm-none-eabi/include/c++/10.2.1/bits/char_traits.h ****   template<typename _CharT>
 153:/home/luca/DaisySeedDeveloper/gcc-arm-none-eabi-10-2020-q4-major/arm-none-eabi/include/c++/10.2.1/bits/char_traits.h ****     _GLIBCXX14_CONSTEXPR int
 154:/home/luca/DaisySeedDeveloper/gcc-arm-none-eabi-10-2020-q4-major/arm-none-eabi/include/c++/10.2.1/bits/char_traits.h ****     char_traits<_CharT>::
 155:/home/luca/DaisySeedDeveloper/gcc-arm-none-eabi-10-2020-q4-major/arm-none-eabi/include/c++/10.2.1/bits/char_traits.h ****     compare(const char_type* __s1, const char_type* __s2, std::size_t __n)
 156:/home/luca/DaisySeedDeveloper/gcc-arm-none-eabi-10-2020-q4-major/arm-none-eabi/include/c++/10.2.1/bits/char_traits.h ****     {
 157:/home/luca/DaisySeedDeveloper/gcc-arm-none-eabi-10-2020-q4-major/arm-none-eabi/include/c++/10.2.1/bits/char_traits.h ****       for (std::size_t __i = 0; __i < __n; ++__i)
 158:/home/luca/DaisySeedDeveloper/gcc-arm-none-eabi-10-2020-q4-major/arm-none-eabi/include/c++/10.2.1/bits/char_traits.h **** 	if (lt(__s1[__i], __s2[__i]))
 159:/home/luca/DaisySeedDeveloper/gcc-arm-none-eabi-10-2020-q4-major/arm-none-eabi/include/c++/10.2.1/bits/char_traits.h **** 	  return -1;
 160:/home/luca/DaisySeedDeveloper/gcc-arm-none-eabi-10-2020-q4-major/arm-none-eabi/include/c++/10.2.1/bits/char_traits.h **** 	else if (lt(__s2[__i], __s1[__i]))
 161:/home/luca/DaisySeedDeveloper/gcc-arm-none-eabi-10-2020-q4-major/arm-none-eabi/include/c++/10.2.1/bits/char_traits.h **** 	  return 1;
 162:/home/luca/DaisySeedDeveloper/gcc-arm-none-eabi-10-2020-q4-major/arm-none-eabi/include/c++/10.2.1/bits/char_traits.h ****       return 0;
 163:/home/luca/DaisySeedDeveloper/gcc-arm-none-eabi-10-2020-q4-major/arm-none-eabi/include/c++/10.2.1/bits/char_traits.h ****     }
 164:/home/luca/DaisySeedDeveloper/gcc-arm-none-eabi-10-2020-q4-major/arm-none-eabi/include/c++/10.2.1/bits/char_traits.h **** 
 165:/home/luca/DaisySeedDeveloper/gcc-arm-none-eabi-10-2020-q4-major/arm-none-eabi/include/c++/10.2.1/bits/char_traits.h ****   template<typename _CharT>
 166:/home/luca/DaisySeedDeveloper/gcc-arm-none-eabi-10-2020-q4-major/arm-none-eabi/include/c++/10.2.1/bits/char_traits.h ****     _GLIBCXX14_CONSTEXPR std::size_t
 167:/home/luca/DaisySeedDeveloper/gcc-arm-none-eabi-10-2020-q4-major/arm-none-eabi/include/c++/10.2.1/bits/char_traits.h ****     char_traits<_CharT>::
 168:/home/luca/DaisySeedDeveloper/gcc-arm-none-eabi-10-2020-q4-major/arm-none-eabi/include/c++/10.2.1/bits/char_traits.h ****     length(const char_type* __p)
 169:/home/luca/DaisySeedDeveloper/gcc-arm-none-eabi-10-2020-q4-major/arm-none-eabi/include/c++/10.2.1/bits/char_traits.h ****     {
 170:/home/luca/DaisySeedDeveloper/gcc-arm-none-eabi-10-2020-q4-major/arm-none-eabi/include/c++/10.2.1/bits/char_traits.h ****       std::size_t __i = 0;
 171:/home/luca/DaisySeedDeveloper/gcc-arm-none-eabi-10-2020-q4-major/arm-none-eabi/include/c++/10.2.1/bits/char_traits.h ****       while (!eq(__p[__i], char_type()))
 172:/home/luca/DaisySeedDeveloper/gcc-arm-none-eabi-10-2020-q4-major/arm-none-eabi/include/c++/10.2.1/bits/char_traits.h ****         ++__i;
 173:/home/luca/DaisySeedDeveloper/gcc-arm-none-eabi-10-2020-q4-major/arm-none-eabi/include/c++/10.2.1/bits/char_traits.h ****       return __i;
 174:/home/luca/DaisySeedDeveloper/gcc-arm-none-eabi-10-2020-q4-major/arm-none-eabi/include/c++/10.2.1/bits/char_traits.h ****     }
 175:/home/luca/DaisySeedDeveloper/gcc-arm-none-eabi-10-2020-q4-major/arm-none-eabi/include/c++/10.2.1/bits/char_traits.h **** 
ARM GAS  /tmp/ccOjaarx.s 			page 40


 176:/home/luca/DaisySeedDeveloper/gcc-arm-none-eabi-10-2020-q4-major/arm-none-eabi/include/c++/10.2.1/bits/char_traits.h ****   template<typename _CharT>
 177:/home/luca/DaisySeedDeveloper/gcc-arm-none-eabi-10-2020-q4-major/arm-none-eabi/include/c++/10.2.1/bits/char_traits.h ****     _GLIBCXX14_CONSTEXPR const typename char_traits<_CharT>::char_type*
 178:/home/luca/DaisySeedDeveloper/gcc-arm-none-eabi-10-2020-q4-major/arm-none-eabi/include/c++/10.2.1/bits/char_traits.h ****     char_traits<_CharT>::
 179:/home/luca/DaisySeedDeveloper/gcc-arm-none-eabi-10-2020-q4-major/arm-none-eabi/include/c++/10.2.1/bits/char_traits.h ****     find(const char_type* __s, std::size_t __n, const char_type& __a)
 180:/home/luca/DaisySeedDeveloper/gcc-arm-none-eabi-10-2020-q4-major/arm-none-eabi/include/c++/10.2.1/bits/char_traits.h ****     {
 181:/home/luca/DaisySeedDeveloper/gcc-arm-none-eabi-10-2020-q4-major/arm-none-eabi/include/c++/10.2.1/bits/char_traits.h ****       for (std::size_t __i = 0; __i < __n; ++__i)
 182:/home/luca/DaisySeedDeveloper/gcc-arm-none-eabi-10-2020-q4-major/arm-none-eabi/include/c++/10.2.1/bits/char_traits.h ****         if (eq(__s[__i], __a))
 183:/home/luca/DaisySeedDeveloper/gcc-arm-none-eabi-10-2020-q4-major/arm-none-eabi/include/c++/10.2.1/bits/char_traits.h ****           return __s + __i;
 184:/home/luca/DaisySeedDeveloper/gcc-arm-none-eabi-10-2020-q4-major/arm-none-eabi/include/c++/10.2.1/bits/char_traits.h ****       return 0;
 185:/home/luca/DaisySeedDeveloper/gcc-arm-none-eabi-10-2020-q4-major/arm-none-eabi/include/c++/10.2.1/bits/char_traits.h ****     }
 186:/home/luca/DaisySeedDeveloper/gcc-arm-none-eabi-10-2020-q4-major/arm-none-eabi/include/c++/10.2.1/bits/char_traits.h **** 
 187:/home/luca/DaisySeedDeveloper/gcc-arm-none-eabi-10-2020-q4-major/arm-none-eabi/include/c++/10.2.1/bits/char_traits.h ****   template<typename _CharT>
 188:/home/luca/DaisySeedDeveloper/gcc-arm-none-eabi-10-2020-q4-major/arm-none-eabi/include/c++/10.2.1/bits/char_traits.h ****     _GLIBCXX20_CONSTEXPR
 189:/home/luca/DaisySeedDeveloper/gcc-arm-none-eabi-10-2020-q4-major/arm-none-eabi/include/c++/10.2.1/bits/char_traits.h ****     typename char_traits<_CharT>::char_type*
 190:/home/luca/DaisySeedDeveloper/gcc-arm-none-eabi-10-2020-q4-major/arm-none-eabi/include/c++/10.2.1/bits/char_traits.h ****     char_traits<_CharT>::
 191:/home/luca/DaisySeedDeveloper/gcc-arm-none-eabi-10-2020-q4-major/arm-none-eabi/include/c++/10.2.1/bits/char_traits.h ****     move(char_type* __s1, const char_type* __s2, std::size_t __n)
 192:/home/luca/DaisySeedDeveloper/gcc-arm-none-eabi-10-2020-q4-major/arm-none-eabi/include/c++/10.2.1/bits/char_traits.h ****     {
 193:/home/luca/DaisySeedDeveloper/gcc-arm-none-eabi-10-2020-q4-major/arm-none-eabi/include/c++/10.2.1/bits/char_traits.h ****       if (__n == 0)
 194:/home/luca/DaisySeedDeveloper/gcc-arm-none-eabi-10-2020-q4-major/arm-none-eabi/include/c++/10.2.1/bits/char_traits.h **** 	return __s1;
 195:/home/luca/DaisySeedDeveloper/gcc-arm-none-eabi-10-2020-q4-major/arm-none-eabi/include/c++/10.2.1/bits/char_traits.h **** #ifdef __cpp_lib_is_constant_evaluated
 196:/home/luca/DaisySeedDeveloper/gcc-arm-none-eabi-10-2020-q4-major/arm-none-eabi/include/c++/10.2.1/bits/char_traits.h ****       if (std::is_constant_evaluated())
 197:/home/luca/DaisySeedDeveloper/gcc-arm-none-eabi-10-2020-q4-major/arm-none-eabi/include/c++/10.2.1/bits/char_traits.h **** 	{
 198:/home/luca/DaisySeedDeveloper/gcc-arm-none-eabi-10-2020-q4-major/arm-none-eabi/include/c++/10.2.1/bits/char_traits.h **** 	  if (__s1 > __s2 && __s1 < __s2 + __n)
 199:/home/luca/DaisySeedDeveloper/gcc-arm-none-eabi-10-2020-q4-major/arm-none-eabi/include/c++/10.2.1/bits/char_traits.h **** 	    std::copy_backward(__s2, __s2 + __n, __s1);
 200:/home/luca/DaisySeedDeveloper/gcc-arm-none-eabi-10-2020-q4-major/arm-none-eabi/include/c++/10.2.1/bits/char_traits.h **** 	  else
 201:/home/luca/DaisySeedDeveloper/gcc-arm-none-eabi-10-2020-q4-major/arm-none-eabi/include/c++/10.2.1/bits/char_traits.h **** 	    std::copy(__s2, __s2 + __n, __s1);
 202:/home/luca/DaisySeedDeveloper/gcc-arm-none-eabi-10-2020-q4-major/arm-none-eabi/include/c++/10.2.1/bits/char_traits.h **** 	  return __s1;
 203:/home/luca/DaisySeedDeveloper/gcc-arm-none-eabi-10-2020-q4-major/arm-none-eabi/include/c++/10.2.1/bits/char_traits.h **** 	}
 204:/home/luca/DaisySeedDeveloper/gcc-arm-none-eabi-10-2020-q4-major/arm-none-eabi/include/c++/10.2.1/bits/char_traits.h **** #endif
 205:/home/luca/DaisySeedDeveloper/gcc-arm-none-eabi-10-2020-q4-major/arm-none-eabi/include/c++/10.2.1/bits/char_traits.h ****       return static_cast<_CharT*>(__builtin_memmove(__s1, __s2,
 206:/home/luca/DaisySeedDeveloper/gcc-arm-none-eabi-10-2020-q4-major/arm-none-eabi/include/c++/10.2.1/bits/char_traits.h **** 						    __n * sizeof(char_type)));
 207:/home/luca/DaisySeedDeveloper/gcc-arm-none-eabi-10-2020-q4-major/arm-none-eabi/include/c++/10.2.1/bits/char_traits.h ****     }
 208:/home/luca/DaisySeedDeveloper/gcc-arm-none-eabi-10-2020-q4-major/arm-none-eabi/include/c++/10.2.1/bits/char_traits.h **** 
 209:/home/luca/DaisySeedDeveloper/gcc-arm-none-eabi-10-2020-q4-major/arm-none-eabi/include/c++/10.2.1/bits/char_traits.h ****   template<typename _CharT>
 210:/home/luca/DaisySeedDeveloper/gcc-arm-none-eabi-10-2020-q4-major/arm-none-eabi/include/c++/10.2.1/bits/char_traits.h ****     _GLIBCXX20_CONSTEXPR
 211:/home/luca/DaisySeedDeveloper/gcc-arm-none-eabi-10-2020-q4-major/arm-none-eabi/include/c++/10.2.1/bits/char_traits.h ****     typename char_traits<_CharT>::char_type*
 212:/home/luca/DaisySeedDeveloper/gcc-arm-none-eabi-10-2020-q4-major/arm-none-eabi/include/c++/10.2.1/bits/char_traits.h ****     char_traits<_CharT>::
 213:/home/luca/DaisySeedDeveloper/gcc-arm-none-eabi-10-2020-q4-major/arm-none-eabi/include/c++/10.2.1/bits/char_traits.h ****     copy(char_type* __s1, const char_type* __s2, std::size_t __n)
 214:/home/luca/DaisySeedDeveloper/gcc-arm-none-eabi-10-2020-q4-major/arm-none-eabi/include/c++/10.2.1/bits/char_traits.h ****     {
 215:/home/luca/DaisySeedDeveloper/gcc-arm-none-eabi-10-2020-q4-major/arm-none-eabi/include/c++/10.2.1/bits/char_traits.h ****       // NB: Inline std::copy so no recursive dependencies.
 216:/home/luca/DaisySeedDeveloper/gcc-arm-none-eabi-10-2020-q4-major/arm-none-eabi/include/c++/10.2.1/bits/char_traits.h ****       std::copy(__s2, __s2 + __n, __s1);
 217:/home/luca/DaisySeedDeveloper/gcc-arm-none-eabi-10-2020-q4-major/arm-none-eabi/include/c++/10.2.1/bits/char_traits.h ****       return __s1;
 218:/home/luca/DaisySeedDeveloper/gcc-arm-none-eabi-10-2020-q4-major/arm-none-eabi/include/c++/10.2.1/bits/char_traits.h ****     }
 219:/home/luca/DaisySeedDeveloper/gcc-arm-none-eabi-10-2020-q4-major/arm-none-eabi/include/c++/10.2.1/bits/char_traits.h **** 
 220:/home/luca/DaisySeedDeveloper/gcc-arm-none-eabi-10-2020-q4-major/arm-none-eabi/include/c++/10.2.1/bits/char_traits.h ****   template<typename _CharT>
 221:/home/luca/DaisySeedDeveloper/gcc-arm-none-eabi-10-2020-q4-major/arm-none-eabi/include/c++/10.2.1/bits/char_traits.h ****     _GLIBCXX20_CONSTEXPR
 222:/home/luca/DaisySeedDeveloper/gcc-arm-none-eabi-10-2020-q4-major/arm-none-eabi/include/c++/10.2.1/bits/char_traits.h ****     typename char_traits<_CharT>::char_type*
 223:/home/luca/DaisySeedDeveloper/gcc-arm-none-eabi-10-2020-q4-major/arm-none-eabi/include/c++/10.2.1/bits/char_traits.h ****     char_traits<_CharT>::
 224:/home/luca/DaisySeedDeveloper/gcc-arm-none-eabi-10-2020-q4-major/arm-none-eabi/include/c++/10.2.1/bits/char_traits.h ****     assign(char_type* __s, std::size_t __n, char_type __a)
 225:/home/luca/DaisySeedDeveloper/gcc-arm-none-eabi-10-2020-q4-major/arm-none-eabi/include/c++/10.2.1/bits/char_traits.h ****     {
 226:/home/luca/DaisySeedDeveloper/gcc-arm-none-eabi-10-2020-q4-major/arm-none-eabi/include/c++/10.2.1/bits/char_traits.h ****       // NB: Inline std::fill_n so no recursive dependencies.
 227:/home/luca/DaisySeedDeveloper/gcc-arm-none-eabi-10-2020-q4-major/arm-none-eabi/include/c++/10.2.1/bits/char_traits.h ****       std::fill_n(__s, __n, __a);
 228:/home/luca/DaisySeedDeveloper/gcc-arm-none-eabi-10-2020-q4-major/arm-none-eabi/include/c++/10.2.1/bits/char_traits.h ****       return __s;
 229:/home/luca/DaisySeedDeveloper/gcc-arm-none-eabi-10-2020-q4-major/arm-none-eabi/include/c++/10.2.1/bits/char_traits.h ****     }
 230:/home/luca/DaisySeedDeveloper/gcc-arm-none-eabi-10-2020-q4-major/arm-none-eabi/include/c++/10.2.1/bits/char_traits.h **** 
 231:/home/luca/DaisySeedDeveloper/gcc-arm-none-eabi-10-2020-q4-major/arm-none-eabi/include/c++/10.2.1/bits/char_traits.h **** _GLIBCXX_END_NAMESPACE_VERSION
 232:/home/luca/DaisySeedDeveloper/gcc-arm-none-eabi-10-2020-q4-major/arm-none-eabi/include/c++/10.2.1/bits/char_traits.h **** } // namespace
ARM GAS  /tmp/ccOjaarx.s 			page 41


 233:/home/luca/DaisySeedDeveloper/gcc-arm-none-eabi-10-2020-q4-major/arm-none-eabi/include/c++/10.2.1/bits/char_traits.h **** 
 234:/home/luca/DaisySeedDeveloper/gcc-arm-none-eabi-10-2020-q4-major/arm-none-eabi/include/c++/10.2.1/bits/char_traits.h **** namespace std _GLIBCXX_VISIBILITY(default)
 235:/home/luca/DaisySeedDeveloper/gcc-arm-none-eabi-10-2020-q4-major/arm-none-eabi/include/c++/10.2.1/bits/char_traits.h **** {
 236:/home/luca/DaisySeedDeveloper/gcc-arm-none-eabi-10-2020-q4-major/arm-none-eabi/include/c++/10.2.1/bits/char_traits.h **** _GLIBCXX_BEGIN_NAMESPACE_VERSION
 237:/home/luca/DaisySeedDeveloper/gcc-arm-none-eabi-10-2020-q4-major/arm-none-eabi/include/c++/10.2.1/bits/char_traits.h **** 
 238:/home/luca/DaisySeedDeveloper/gcc-arm-none-eabi-10-2020-q4-major/arm-none-eabi/include/c++/10.2.1/bits/char_traits.h **** #if __cplusplus >= 201703L
 239:/home/luca/DaisySeedDeveloper/gcc-arm-none-eabi-10-2020-q4-major/arm-none-eabi/include/c++/10.2.1/bits/char_traits.h **** #define __cpp_lib_constexpr_char_traits 201611
 240:/home/luca/DaisySeedDeveloper/gcc-arm-none-eabi-10-2020-q4-major/arm-none-eabi/include/c++/10.2.1/bits/char_traits.h **** 
 241:/home/luca/DaisySeedDeveloper/gcc-arm-none-eabi-10-2020-q4-major/arm-none-eabi/include/c++/10.2.1/bits/char_traits.h ****   /**
 242:/home/luca/DaisySeedDeveloper/gcc-arm-none-eabi-10-2020-q4-major/arm-none-eabi/include/c++/10.2.1/bits/char_traits.h ****    *  @brief Determine whether the characters of a NULL-terminated
 243:/home/luca/DaisySeedDeveloper/gcc-arm-none-eabi-10-2020-q4-major/arm-none-eabi/include/c++/10.2.1/bits/char_traits.h ****    *  string are known at compile time.
 244:/home/luca/DaisySeedDeveloper/gcc-arm-none-eabi-10-2020-q4-major/arm-none-eabi/include/c++/10.2.1/bits/char_traits.h ****    *  @param  __s  The string.
 245:/home/luca/DaisySeedDeveloper/gcc-arm-none-eabi-10-2020-q4-major/arm-none-eabi/include/c++/10.2.1/bits/char_traits.h ****    *
 246:/home/luca/DaisySeedDeveloper/gcc-arm-none-eabi-10-2020-q4-major/arm-none-eabi/include/c++/10.2.1/bits/char_traits.h ****    *  Assumes that _CharT is a built-in character type.
 247:/home/luca/DaisySeedDeveloper/gcc-arm-none-eabi-10-2020-q4-major/arm-none-eabi/include/c++/10.2.1/bits/char_traits.h ****    */
 248:/home/luca/DaisySeedDeveloper/gcc-arm-none-eabi-10-2020-q4-major/arm-none-eabi/include/c++/10.2.1/bits/char_traits.h ****   template<typename _CharT>
 249:/home/luca/DaisySeedDeveloper/gcc-arm-none-eabi-10-2020-q4-major/arm-none-eabi/include/c++/10.2.1/bits/char_traits.h ****     static _GLIBCXX_ALWAYS_INLINE constexpr bool
 250:/home/luca/DaisySeedDeveloper/gcc-arm-none-eabi-10-2020-q4-major/arm-none-eabi/include/c++/10.2.1/bits/char_traits.h ****     __constant_string_p(const _CharT* __s)
 251:/home/luca/DaisySeedDeveloper/gcc-arm-none-eabi-10-2020-q4-major/arm-none-eabi/include/c++/10.2.1/bits/char_traits.h ****     {
 252:/home/luca/DaisySeedDeveloper/gcc-arm-none-eabi-10-2020-q4-major/arm-none-eabi/include/c++/10.2.1/bits/char_traits.h **** #ifdef _GLIBCXX_HAVE_BUILTIN_IS_CONSTANT_EVALUATED
 253:/home/luca/DaisySeedDeveloper/gcc-arm-none-eabi-10-2020-q4-major/arm-none-eabi/include/c++/10.2.1/bits/char_traits.h ****       (void) __s;
 254:/home/luca/DaisySeedDeveloper/gcc-arm-none-eabi-10-2020-q4-major/arm-none-eabi/include/c++/10.2.1/bits/char_traits.h ****       // In constexpr contexts all strings should be constant.
 255:/home/luca/DaisySeedDeveloper/gcc-arm-none-eabi-10-2020-q4-major/arm-none-eabi/include/c++/10.2.1/bits/char_traits.h ****       return __builtin_is_constant_evaluated();
 256:/home/luca/DaisySeedDeveloper/gcc-arm-none-eabi-10-2020-q4-major/arm-none-eabi/include/c++/10.2.1/bits/char_traits.h **** #else
 257:/home/luca/DaisySeedDeveloper/gcc-arm-none-eabi-10-2020-q4-major/arm-none-eabi/include/c++/10.2.1/bits/char_traits.h ****       while (__builtin_constant_p(*__s) && *__s)
 258:/home/luca/DaisySeedDeveloper/gcc-arm-none-eabi-10-2020-q4-major/arm-none-eabi/include/c++/10.2.1/bits/char_traits.h **** 	__s++;
 259:/home/luca/DaisySeedDeveloper/gcc-arm-none-eabi-10-2020-q4-major/arm-none-eabi/include/c++/10.2.1/bits/char_traits.h ****       return __builtin_constant_p(*__s);
 260:/home/luca/DaisySeedDeveloper/gcc-arm-none-eabi-10-2020-q4-major/arm-none-eabi/include/c++/10.2.1/bits/char_traits.h **** #endif
 261:/home/luca/DaisySeedDeveloper/gcc-arm-none-eabi-10-2020-q4-major/arm-none-eabi/include/c++/10.2.1/bits/char_traits.h ****     }
 262:/home/luca/DaisySeedDeveloper/gcc-arm-none-eabi-10-2020-q4-major/arm-none-eabi/include/c++/10.2.1/bits/char_traits.h **** 
 263:/home/luca/DaisySeedDeveloper/gcc-arm-none-eabi-10-2020-q4-major/arm-none-eabi/include/c++/10.2.1/bits/char_traits.h ****   /**
 264:/home/luca/DaisySeedDeveloper/gcc-arm-none-eabi-10-2020-q4-major/arm-none-eabi/include/c++/10.2.1/bits/char_traits.h ****    *  @brief Determine whether the characters of a character array are
 265:/home/luca/DaisySeedDeveloper/gcc-arm-none-eabi-10-2020-q4-major/arm-none-eabi/include/c++/10.2.1/bits/char_traits.h ****    *  known at compile time.
 266:/home/luca/DaisySeedDeveloper/gcc-arm-none-eabi-10-2020-q4-major/arm-none-eabi/include/c++/10.2.1/bits/char_traits.h ****    *  @param  __a  The character array.
 267:/home/luca/DaisySeedDeveloper/gcc-arm-none-eabi-10-2020-q4-major/arm-none-eabi/include/c++/10.2.1/bits/char_traits.h ****    *  @param  __n  Number of characters.
 268:/home/luca/DaisySeedDeveloper/gcc-arm-none-eabi-10-2020-q4-major/arm-none-eabi/include/c++/10.2.1/bits/char_traits.h ****    *
 269:/home/luca/DaisySeedDeveloper/gcc-arm-none-eabi-10-2020-q4-major/arm-none-eabi/include/c++/10.2.1/bits/char_traits.h ****    *  Assumes that _CharT is a built-in character type.
 270:/home/luca/DaisySeedDeveloper/gcc-arm-none-eabi-10-2020-q4-major/arm-none-eabi/include/c++/10.2.1/bits/char_traits.h ****    */
 271:/home/luca/DaisySeedDeveloper/gcc-arm-none-eabi-10-2020-q4-major/arm-none-eabi/include/c++/10.2.1/bits/char_traits.h ****   template<typename _CharT>
 272:/home/luca/DaisySeedDeveloper/gcc-arm-none-eabi-10-2020-q4-major/arm-none-eabi/include/c++/10.2.1/bits/char_traits.h ****     static _GLIBCXX_ALWAYS_INLINE constexpr bool
 273:/home/luca/DaisySeedDeveloper/gcc-arm-none-eabi-10-2020-q4-major/arm-none-eabi/include/c++/10.2.1/bits/char_traits.h ****     __constant_char_array_p(const _CharT* __a, size_t __n)
 274:/home/luca/DaisySeedDeveloper/gcc-arm-none-eabi-10-2020-q4-major/arm-none-eabi/include/c++/10.2.1/bits/char_traits.h ****     {
 275:/home/luca/DaisySeedDeveloper/gcc-arm-none-eabi-10-2020-q4-major/arm-none-eabi/include/c++/10.2.1/bits/char_traits.h **** #ifdef _GLIBCXX_HAVE_BUILTIN_IS_CONSTANT_EVALUATED
 276:/home/luca/DaisySeedDeveloper/gcc-arm-none-eabi-10-2020-q4-major/arm-none-eabi/include/c++/10.2.1/bits/char_traits.h ****       (void) __a;
 277:/home/luca/DaisySeedDeveloper/gcc-arm-none-eabi-10-2020-q4-major/arm-none-eabi/include/c++/10.2.1/bits/char_traits.h ****       (void) __n;
 278:/home/luca/DaisySeedDeveloper/gcc-arm-none-eabi-10-2020-q4-major/arm-none-eabi/include/c++/10.2.1/bits/char_traits.h ****       // In constexpr contexts all character arrays should be constant.
 279:/home/luca/DaisySeedDeveloper/gcc-arm-none-eabi-10-2020-q4-major/arm-none-eabi/include/c++/10.2.1/bits/char_traits.h ****       return __builtin_is_constant_evaluated();
 280:/home/luca/DaisySeedDeveloper/gcc-arm-none-eabi-10-2020-q4-major/arm-none-eabi/include/c++/10.2.1/bits/char_traits.h **** #else
 281:/home/luca/DaisySeedDeveloper/gcc-arm-none-eabi-10-2020-q4-major/arm-none-eabi/include/c++/10.2.1/bits/char_traits.h ****       size_t __i = 0;
 282:/home/luca/DaisySeedDeveloper/gcc-arm-none-eabi-10-2020-q4-major/arm-none-eabi/include/c++/10.2.1/bits/char_traits.h ****       while (__i < __n && __builtin_constant_p(__a[__i]))
 283:/home/luca/DaisySeedDeveloper/gcc-arm-none-eabi-10-2020-q4-major/arm-none-eabi/include/c++/10.2.1/bits/char_traits.h **** 	__i++;
 284:/home/luca/DaisySeedDeveloper/gcc-arm-none-eabi-10-2020-q4-major/arm-none-eabi/include/c++/10.2.1/bits/char_traits.h ****       return __i == __n;
 285:/home/luca/DaisySeedDeveloper/gcc-arm-none-eabi-10-2020-q4-major/arm-none-eabi/include/c++/10.2.1/bits/char_traits.h **** #endif
 286:/home/luca/DaisySeedDeveloper/gcc-arm-none-eabi-10-2020-q4-major/arm-none-eabi/include/c++/10.2.1/bits/char_traits.h ****     }
 287:/home/luca/DaisySeedDeveloper/gcc-arm-none-eabi-10-2020-q4-major/arm-none-eabi/include/c++/10.2.1/bits/char_traits.h **** #endif
 288:/home/luca/DaisySeedDeveloper/gcc-arm-none-eabi-10-2020-q4-major/arm-none-eabi/include/c++/10.2.1/bits/char_traits.h **** 
 289:/home/luca/DaisySeedDeveloper/gcc-arm-none-eabi-10-2020-q4-major/arm-none-eabi/include/c++/10.2.1/bits/char_traits.h ****   // 21.1
ARM GAS  /tmp/ccOjaarx.s 			page 42


